TMS320C2000 COFF Assembler PC v4.1.0 Mon Dec 21 14:54:55 2009

Tools Copyright (c) 1996-2005 Texas Instruments Incorporated
C:\DOCUME~1\ADMINI~1\LOCALS~1\Temp\TI9922                            PAGE    1

       1              ;***************************************************************
       2              ;* TMS320C2000 C/C++ Codegen                         PC v4.1.0 *
       3              ;* Date/Time created: Mon Dec 21 14:54:54 2009                 *
       4              ;***************************************************************
       5                      .compiler_opts --mem_model:code=flat --mem_model:data=large --quiet --silicon_version=28 
       6        0002  FP      .set    XAR2
       7              
       8              DW$CU   .dwtag  DW_TAG_compile_unit
       9                      .dwattr DW$CU, DW_AT_name("mainfeedforward.c")
      10                      .dwattr DW$CU, DW_AT_producer("TMS320C2000 C/C++ Codegen PC v4.1.0 Copyright (c) 1996-2005 Texas Inst
      11                      .dwattr DW$CU, DW_AT_stmt_list(0x00)
      12                      .dwattr DW$CU, DW_AT_TI_VERSION(0x01)
      13              ;**************************************************************
      14              ;* CINIT RECORDS                                              *
      15              ;**************************************************************
      16 00000000               .sect   ".cinit"
      17                      .align  1
      18 00000000 FFFF          .field          -1,16
      19 00000001 0000-         .field          _UCMPA1+0,32
         00000002 0000 
      20 00000003 04E2          .field          1250,16                 ; _UCMPA1 @ 0
      21              
      22 00000004               .sect   ".cinit"
      23                      .align  1
      24 00000004 FFFF          .field          -1,16
      25 00000005 0001-         .field          _UCMPB2+0,32
         00000006 0000 
      26 00000007 04E2          .field          1250,16                 ; _UCMPB2 @ 0
      27              
      28 00000008               .sect   ".cinit"
      29                      .align  1
      30 00000008 FFFF          .field          -1,16
      31 00000009 0002-         .field          _UCMPB1+0,32
         0000000a 0000 
      32 0000000b 04E2          .field          1250,16                 ; _UCMPB1 @ 0
      33              
      34 0000000c               .sect   ".cinit"
      35                      .align  1
      36 0000000c FFFF          .field          -1,16
      37 0000000d 0003-         .field          _UCMPA2+0,32
         0000000e 0000 
      38 0000000f 04E2          .field          1250,16                 ; _UCMPA2 @ 0
      39              
      40 00000010               .sect   ".cinit"
      41                      .align  1
      42 00000010 FFFF          .field          -1,16
      43 00000011 0004-         .field          _con_auxstart+0,32
         00000012 0000 
      44 00000013 0000          .field          0,16                    ; _con_auxstart @ 0
      45              
      46 00000014               .sect   ".cinit"
      47                      .align  1
      48 00000014 FFFF          .field          -1,16
      49 00000015 0005-         .field          _period+0,32
         00000016 0000 
TMS320C2000 COFF Assembler PC v4.1.0 Mon Dec 21 14:54:55 2009

Tools Copyright (c) 1996-2005 Texas Instruments Incorporated
C:\DOCUME~1\ADMINI~1\LOCALS~1\Temp\TI9922                            PAGE    2

      50 00000017 09C4          .field          2500,16                 ; _period @ 0
      51              
      52 00000018               .sect   ".cinit"
      53                      .align  1
      54 00000018 FFFF          .field          -1,16
      55 00000019 0006-         .field          _OLFLAG+0,32
         0000001a 0000 
      56 0000001b 0000          .field          0,16                    ; _OLFLAG @ 0
      57              
      58 0000001c               .sect   ".cinit"
      59                      .align  1
      60 0000001c FFFE          .field          -2,16
      61 0000001d 0008-         .field          _sin_out_iq+0,32
         0000001e 0000 
      62 0000001f 0000          .field          0,32                    ; _sin_out_iq @ 0
         00000020 0000 
      63              
      64 00000021               .sect   ".cinit"
      65                      .align  1
      66 00000021 FFFE          .field          -2,16
      67 00000022 000A-         .field          _sin_in_iq+0,32
         00000023 0000 
      68 00000024 0000          .field          0,32                    ; _sin_in_iq @ 0
         00000025 0000 
      69              
      70 00000026               .sect   ".cinit"
      71                      .align  1
      72 00000026 FFFE          .field          -2,16
      73 00000027 000C-         .field          _sogi_satL_iq+0,32
         00000028 0000 
      74 00000029 0000          .field          -15728640,32                    ; _sogi_satL_iq @ 0
         0000002a FF10 
      75              
      76 0000002b               .sect   ".cinit"
      77                      .align  1
      78 0000002b FFFE          .field          -2,16
      79 0000002c 000E-         .field          _sogi_satH_iq+0,32
         0000002d 0000 
      80 0000002e 0000          .field          15728640,32                     ; _sogi_satH_iq @ 0
         0000002f 00F0 
      81              
      82 00000030               .sect   ".cinit"
      83                      .align  1
      84 00000030 FFFE          .field          -2,16
      85 00000031 0010-         .field          _pll_ph_iq+0,32
         00000032 0000 
      86 00000033 43F3          .field          3294195,32                      ; _pll_ph_iq @ 0
         00000034 0032 
      87              
      88 00000035               .sect   ".cinit"
      89                      .align  1
      90 00000035 FFFE          .field          -2,16
      91 00000036 0012-         .field          _pll_sin_iq+0,32
         00000037 0000 
      92 00000038 0000          .field          0,32                    ; _pll_sin_iq @ 0
TMS320C2000 COFF Assembler PC v4.1.0 Mon Dec 21 14:54:55 2009

Tools Copyright (c) 1996-2005 Texas Instruments Incorporated
C:\DOCUME~1\ADMINI~1\LOCALS~1\Temp\TI9922                            PAGE    3

         00000039 0000 
      93              
      94 0000003a               .sect   ".cinit"
      95                      .align  1
      96 0000003a FFFE          .field          -2,16
      97 0000003b 0014-         .field          _pll_Vo_iq+0,32
         0000003c 0000 
      98 0000003d 0000          .field          0,32                    ; _pll_Vo_iq @ 0
         0000003e 0000 
      99              
     100 0000003f               .sect   ".cinit"
     101                      .align  1
     102 0000003f FFFE          .field          -2,16
     103 00000040 0016-         .field          _pll_ks_iq+0,32
         00000041 0000 
     104 00000042 0000          .field          2103705600,32                   ; _pll_ks_iq @ 0
         00000043 7D64 
     105              
     106 00000044               .sect   ".cinit"
     107                      .align  1
     108 00000044 FFFE          .field          -2,16
     109 00000045 0018-         .field          _pll_kp_iq+0,32
         00000046 0000 
     110 00000047 0000          .field          2097152000,32                   ; _pll_kp_iq @ 0
         00000048 7D00 
     111              
     112 00000049               .sect   ".cinit"
     113                      .align  1
     114 00000049 FFFE          .field          -2,16
     115 0000004a 001A-         .field          _TS_iq+0,32
         0000004b 0000 
     116 0000004c 001A          .field          26,32                   ; _TS_iq @ 0
         0000004d 0000 
     117              
     118 0000004e               .sect   ".cinit"
     119                      .align  1
     120 0000004e FFFE          .field          -2,16
     121 0000004f 001C-         .field          _pll_cos_iq+0,32
         00000050 0000 
     122 00000051 0000          .field          0,32                    ; _pll_cos_iq @ 0
         00000052 0000 
     123              
     124 00000053               .sect   ".cinit"
     125                      .align  1
     126 00000053 FFFE          .field          -2,16
     127 00000054 001E-         .field          _fll_gain_iq30+0,32
         00000055 0000 
     128 00000056 D4FD          .field          24696061,32                     ; _fll_gain_iq30 @ 0
         00000057 0178 
     129              
     130 00000058               .sect   ".cinit"
     131                      .align  1
     132 00000058 FFFE          .field          -2,16
     133 00000059 0024-         .field          _iL_rate_iq+0,32
         0000005a 0000 
TMS320C2000 COFF Assembler PC v4.1.0 Mon Dec 21 14:54:55 2009

Tools Copyright (c) 1996-2005 Texas Instruments Incorporated
C:\DOCUME~1\ADMINI~1\LOCALS~1\Temp\TI9922                            PAGE    4

     134 0000005b 6666          .field          419430,32                       ; _iL_rate_iq @ 0
         0000005c 0006 
     135              
     136 0000005d               .sect   ".cinit"
     137                      .align  1
     138 0000005d FFFE          .field          -2,16
     139 0000005e 0026-         .field          _iG_rate_iq+0,32
         0000005f 0000 
     140 00000060 9999          .field          104857,32                       ; _iG_rate_iq @ 0
         00000061 0001 
     141              
     142 00000062               .sect   ".cinit"
     143                      .align  1
     144 00000062 FFFE          .field          -2,16
     145 00000063 002C-         .field          _Vg_ff_rate_iq+0,32
         00000064 0000 
     146 00000065 9999          .field          104857,32                       ; _Vg_ff_rate_iq @ 0
         00000066 0001 
     147              
     148 00000067               .sect   ".cinit"
     149                      .align  1
     150 00000067 FFFE          .field          -2,16
     151 00000068 002E-         .field          _ref_ff_rate_iq+0,32
         00000069 0000 
     152 0000006a 9999          .field          104857,32                       ; _ref_ff_rate_iq @ 0
         0000006b 0001 
     153              
     154 0000006c               .sect   ".cinit"
     155                      .align  1
     156 0000006c FFFE          .field          -2,16
     157 0000006d 0034-         .field          _Current_ampl_iq+0,32
         0000006e 0000 
     158 0000006f 0000          .field          3145728,32                      ; _Current_ampl_iq @ 0
         00000070 0030 
     159              
     160 00000071               .sect   ".cinit"
     161                      .align  1
     162 00000071 FFFE          .field          -2,16
     163 00000072 0036-         .field          _kiTs_iq+0,32
         00000073 0000 
     164 00000074 0000          .field          0,32                    ; _kiTs_iq @ 0
         00000075 0000 
     165              
     166 00000076               .sect   ".cinit"
     167                      .align  1
     168 00000076 FFFE          .field          -2,16
     169 00000077 0038-         .field          _kp_iq+0,32
         00000078 0000 
     170 00000079 0000          .field          2621440,32                      ; _kp_iq @ 0
         0000007a 0028 
     171              
     172 0000007b               .sect   ".cinit"
     173                      .align  1
     174 0000007b FFFE          .field          -2,16
     175 0000007c 0040-         .field          _current_pwm_iq+0,32
TMS320C2000 COFF Assembler PC v4.1.0 Mon Dec 21 14:54:55 2009

Tools Copyright (c) 1996-2005 Texas Instruments Incorporated
C:\DOCUME~1\ADMINI~1\LOCALS~1\Temp\TI9922                            PAGE    5

         0000007d 0000 
     176 0000007e 0000          .field          0,32                    ; _current_pwm_iq @ 0
         0000007f 0000 
     177              
     178 00000080               .sect   ".cinit"
     179                      .align  1
     180 00000080 FFFE          .field          -2,16
     181 00000081 0044-         .field          _con_sinref_iq+0,32
         00000082 0000 
     182 00000083 0000          .field          0,32                    ; _con_sinref_iq @ 0
         00000084 0000 
     183              
     184 00000085               .sect   ".cinit"
     185                      .align  1
     186 00000085 FFFE          .field          -2,16
     187 00000086 0046-         .field          _con_M_iq+0,32
         00000087 0000 
     188 00000088 0000          .field          0,32                    ; _con_M_iq @ 0
         00000089 0000 
     189              
     190 0000008a               .sect   ".cinit"
     191                      .align  1
     192 0000008a FFFE          .field          -2,16
     193 0000008b 0048-         .field          _ADC_offset_iq+0,32
         0000008c 0000 
     194 0000008d 0000          .field          1073479680,32                   ; _ADC_offset_iq @ 0
         0000008e 3FFC 
     195              
     196 0000008f               .sect   ".cinit"
     197                      .align  1
     198 0000008f FFFE          .field          -2,16
     199 00000090 004A-         .field          _sogi_gain_iq+0,32
         00000091 0000 
     200 00000092 504F          .field          741455,32                       ; _sogi_gain_iq @ 0
         00000093 000B 
     201              
     202 00000094               .sect   ".cinit"
     203                      .align  1
     204 00000094 FFFE          .field          -2,16
     205 00000095 004C-         .field          _fll_out_iq+0,32
         00000096 0000 
     206 00000097 462C          .field          164709932,32                    ; _fll_out_iq @ 0
         00000098 09D1 
     207              
     208 00000099               .sect   ".cinit"
     209                      .align  1
     210 00000099 FFFE          .field          -2,16
     211 0000009a 004E-         .field          _sogiT1_iq30+0,32
         0000009b 0000 
     212 0000009c 3A92          .field          80530,32                        ; _sogiT1_iq30 @ 0
         0000009d 0001 
     213              
     214 0000009e               .sect   ".cinit"
     215                      .align  1
     216 0000009e FFFE          .field          -2,16
TMS320C2000 COFF Assembler PC v4.1.0 Mon Dec 21 14:54:55 2009

Tools Copyright (c) 1996-2005 Texas Instruments Incorporated
C:\DOCUME~1\ADMINI~1\LOCALS~1\Temp\TI9922                            PAGE    6

     217 0000009f 0050-         .field          _pwm_in_iq+0,32
         000000a0 0000 
     218 000000a1 0000          .field          0,32                    ; _pwm_in_iq @ 0
         000000a2 0000 
     219              
     220 000000a3               .sect   ".cinit"
     221                      .align  1
     222 000000a3 FFFE          .field          -2,16
     223 000000a4 0052-         .field          _sogiT2_iq30+0,32
         000000a5 0000 
     224 000000a6 68DB          .field          26843,32                        ; _sogiT2_iq30 @ 0
         000000a7 0000 
     225              
     226 000000a8               .sect   ".cinit"
     227                      .align  1
     228 000000a8 FFFC          .field          -IR_1,16
     229 000000a9 0054-         .field          _sogi_out2_iq+0,32
         000000aa 0000 
     230 000000ab 0000          .field          0,32                    ; _sogi_out2_iq[0] @ 0
         000000ac 0000 
     231 000000ad 0000          .field          0,32                    ; _sogi_out2_iq[1] @ 32
         000000ae 0000 
     232        0004  IR_1:   .set    4
     233              
     234 000000af               .sect   ".cinit"
     235                      .align  1
     236 000000af FFFC          .field          -IR_2,16
     237 000000b0 0058-         .field          _pll_Vd_iq+0,32
         000000b1 0000 
     238 000000b2 0000          .field          0,32                    ; _pll_Vd_iq[0] @ 0
         000000b3 0000 
     239 000000b4 0000          .field          0,32                    ; _pll_Vd_iq[1] @ 32
         000000b5 0000 
     240        0004  IR_2:   .set    4
     241              
     242 000000b6               .sect   ".cinit"
     243                      .align  1
     244 000000b6 FFFC          .field          -IR_3,16
     245 000000b7 005C-         .field          _current_error_ki_iq+0,32
         000000b8 0000 
     246 000000b9 0000          .field          0,32                    ; _current_error_ki_iq[0] @ 0
         000000ba 0000 
     247 000000bb 0000          .field          0,32                    ; _current_error_ki_iq[1] @ 32
         000000bc 0000 
     248        0004  IR_3:   .set    4
     249              
     250 000000bd               .sect   ".cinit"
     251                      .align  1
     252 000000bd FFFA          .field          -IR_4,16
     253 000000be 0060-         .field          _sogi_out1_iq+0,32
         000000bf 0000 
     254 000000c0 0000          .field          0,32                    ; _sogi_out1_iq[0] @ 0
         000000c1 0000 
     255 000000c2 0000          .field          0,32                    ; _sogi_out1_iq[1] @ 32
         000000c3 0000 
TMS320C2000 COFF Assembler PC v4.1.0 Mon Dec 21 14:54:55 2009

Tools Copyright (c) 1996-2005 Texas Instruments Incorporated
C:\DOCUME~1\ADMINI~1\LOCALS~1\Temp\TI9922                            PAGE    7

     256 000000c4 0000          .field          0,32                    ; _sogi_out1_iq[2] @ 64
         000000c5 0000 
     257        0006  IR_4:   .set    6
     258              
     259 000000c6               .sect   ".cinit"
     260                      .align  1
     261 000000c6 FFFA          .field          -IR_5,16
     262 000000c7 0066-         .field          _sogi_in2_iq+0,32
         000000c8 0000 
     263 000000c9 0000          .field          0,32                    ; _sogi_in2_iq[0] @ 0
         000000ca 0000 
     264 000000cb 0000          .field          0,32                    ; _sogi_in2_iq[1] @ 32
         000000cc 0000 
     265 000000cd 0000          .field          0,32                    ; _sogi_in2_iq[2] @ 64
         000000ce 0000 
     266        0006  IR_5:   .set    6
     267              
     268 000000cf               .sect   ".cinit"
     269                      .align  1
     270 000000cf FFFA          .field          -IR_6,16
     271 000000d0 006C-         .field          _sogi_in1_iq+0,32
         000000d1 0000 
     272 000000d2 0000          .field          0,32                    ; _sogi_in1_iq[0] @ 0
         000000d3 0000 
     273 000000d4 0000          .field          0,32                    ; _sogi_in1_iq[1] @ 32
         000000d5 0000 
     274 000000d6 0000          .field          0,32                    ; _sogi_in1_iq[2] @ 64
         000000d7 0000 
     275        0006  IR_6:   .set    6
     276              
     277 000000d8               .sect   ".cinit"
     278                      .align  1
     279 000000d8 FFF4          .field          -IR_7,16
     280 000000d9 0072-         .field          _ADC_out_iq+0,32
         000000da 0000 
     281 000000db 0000          .field          0,32                    ; _ADC_out_iq[0] @ 0
         000000dc 0000 
     282 000000dd 0000          .field          0,32                    ; _ADC_out_iq[1] @ 32
         000000de 0000 
     283 000000df 0000          .field          0,32                    ; _ADC_out_iq[2] @ 64
         000000e0 0000 
     284 000000e1 0000          .field          0,32                    ; _ADC_out_iq[3] @ 96
         000000e2 0000 
     285 000000e3 0000          .field          0,32                    ; _ADC_out_iq[4] @ 128
         000000e4 0000 
     286 000000e5 0000          .field          0,32                    ; _ADC_out_iq[5] @ 160
         000000e6 0000 
     287        000C  IR_7:   .set    12
     288              
     289 000000e7               .sect   ".cinit"
     290                      .align  1
     291 000000e7 FFF4          .field          -IR_8,16
     292 000000e8 0080-         .field          _ADC_fk_iq+0,32
         000000e9 0000 
     293 000000ea CB5B          .field          23382875,32                     ; _ADC_fk_iq[0] @ 0
TMS320C2000 COFF Assembler PC v4.1.0 Mon Dec 21 14:54:55 2009

Tools Copyright (c) 1996-2005 Texas Instruments Incorporated
C:\DOCUME~1\ADMINI~1\LOCALS~1\Temp\TI9922                            PAGE    8

         000000eb 0164 
     294 000000ec 04AB          .field          4916395,32                      ; _ADC_fk_iq[1] @ 32
         000000ed 004B 
     295 000000ee 30FC          .field          37892348,32                     ; _ADC_fk_iq[2] @ 64
         000000ef 0242 
     296 000000f0 0000          .field          65536,32                        ; _ADC_fk_iq[3] @ 96
         000000f1 0001 
     297 000000f2 04AB          .field          4916395,32                      ; _ADC_fk_iq[4] @ 128
         000000f3 004B 
     298 000000f4 0000          .field          0,32                    ; _ADC_fk_iq[5] @ 160
         000000f5 0000 
     299        000C  IR_8:   .set    12
     300              
     301              
     302              DW$1    .dwtag  DW_TAG_subprogram, DW_AT_name("InitPieVectTable"), DW_AT_symbol_name("_InitPieVectTable")
     303                      .dwattr DW$1, DW_AT_declaration(0x01)
     304                      .dwattr DW$1, DW_AT_external(0x01)
     305              
     306              DW$2    .dwtag  DW_TAG_subprogram, DW_AT_name("InitPieCtrl"), DW_AT_symbol_name("_InitPieCtrl")
     307                      .dwattr DW$2, DW_AT_declaration(0x01)
     308                      .dwattr DW$2, DW_AT_external(0x01)
     309              
     310              DW$3    .dwtag  DW_TAG_subprogram, DW_AT_name("InitSysCtrl"), DW_AT_symbol_name("_InitSysCtrl")
     311                      .dwattr DW$3, DW_AT_declaration(0x01)
     312                      .dwattr DW$3, DW_AT_external(0x01)
     313                      .global _UCMPA1
     314 00000000       _UCMPA1:        .usect  ".ebss",1,1,0
     315              DW$4    .dwtag  DW_TAG_variable, DW_AT_name("UCMPA1"), DW_AT_symbol_name("_UCMPA1")
     316                      .dwattr DW$4, DW_AT_location[DW_OP_addr _UCMPA1]
     317                      .dwattr DW$4, DW_AT_type(*DW$T$10)
     318                      .dwattr DW$4, DW_AT_external(0x01)
     319                      .global _UCMPB2
     320 00000001       _UCMPB2:        .usect  ".ebss",1,1,0
     321              DW$5    .dwtag  DW_TAG_variable, DW_AT_name("UCMPB2"), DW_AT_symbol_name("_UCMPB2")
     322                      .dwattr DW$5, DW_AT_location[DW_OP_addr _UCMPB2]
     323                      .dwattr DW$5, DW_AT_type(*DW$T$10)
     324                      .dwattr DW$5, DW_AT_external(0x01)
     325                      .global _UCMPB1
     326 00000002       _UCMPB1:        .usect  ".ebss",1,1,0
     327              DW$6    .dwtag  DW_TAG_variable, DW_AT_name("UCMPB1"), DW_AT_symbol_name("_UCMPB1")
     328                      .dwattr DW$6, DW_AT_location[DW_OP_addr _UCMPB1]
     329                      .dwattr DW$6, DW_AT_type(*DW$T$10)
     330                      .dwattr DW$6, DW_AT_external(0x01)
     331                      .global _UCMPA2
     332 00000003       _UCMPA2:        .usect  ".ebss",1,1,0
     333              DW$7    .dwtag  DW_TAG_variable, DW_AT_name("UCMPA2"), DW_AT_symbol_name("_UCMPA2")
     334                      .dwattr DW$7, DW_AT_location[DW_OP_addr _UCMPA2]
     335                      .dwattr DW$7, DW_AT_type(*DW$T$10)
     336                      .dwattr DW$7, DW_AT_external(0x01)
     337                      .global _con_auxstart
     338 00000004       _con_auxstart:  .usect  ".ebss",1,1,0
     339              DW$8    .dwtag  DW_TAG_variable, DW_AT_name("con_auxstart"), DW_AT_symbol_name("_con_auxstart")
     340                      .dwattr DW$8, DW_AT_location[DW_OP_addr _con_auxstart]
     341                      .dwattr DW$8, DW_AT_type(*DW$T$10)
     342                      .dwattr DW$8, DW_AT_external(0x01)
TMS320C2000 COFF Assembler PC v4.1.0 Mon Dec 21 14:54:55 2009

Tools Copyright (c) 1996-2005 Texas Instruments Incorporated
C:\DOCUME~1\ADMINI~1\LOCALS~1\Temp\TI9922                            PAGE    9

     343                      .global _period
     344 00000005       _period:        .usect  ".ebss",1,1,0
     345              DW$9    .dwtag  DW_TAG_variable, DW_AT_name("period"), DW_AT_symbol_name("_period")
     346                      .dwattr DW$9, DW_AT_location[DW_OP_addr _period]
     347                      .dwattr DW$9, DW_AT_type(*DW$T$10)
     348                      .dwattr DW$9, DW_AT_external(0x01)
     349                      .global _OLFLAG
     350 00000006       _OLFLAG:        .usect  ".ebss",1,1,0
     351              DW$10   .dwtag  DW_TAG_variable, DW_AT_name("OLFLAG"), DW_AT_symbol_name("_OLFLAG")
     352                      .dwattr DW$10, DW_AT_location[DW_OP_addr _OLFLAG]
     353                      .dwattr DW$10, DW_AT_type(*DW$T$10)
     354                      .dwattr DW$10, DW_AT_external(0x01)
     355                      .global _sin_out_iq
     356 00000008       _sin_out_iq:    .usect  ".ebss",2,1,1
     357              DW$11   .dwtag  DW_TAG_variable, DW_AT_name("sin_out_iq"), DW_AT_symbol_name("_sin_out_iq")
     358                      .dwattr DW$11, DW_AT_location[DW_OP_addr _sin_out_iq]
     359                      .dwattr DW$11, DW_AT_type(*DW$T$153)
     360                      .dwattr DW$11, DW_AT_external(0x01)
     361                      .global _sin_in_iq
     362 0000000a       _sin_in_iq:     .usect  ".ebss",2,1,1
     363              DW$12   .dwtag  DW_TAG_variable, DW_AT_name("sin_in_iq"), DW_AT_symbol_name("_sin_in_iq")
     364                      .dwattr DW$12, DW_AT_location[DW_OP_addr _sin_in_iq]
     365                      .dwattr DW$12, DW_AT_type(*DW$T$153)
     366                      .dwattr DW$12, DW_AT_external(0x01)
     367                      .global _sogi_satL_iq
     368 0000000c       _sogi_satL_iq:  .usect  ".ebss",2,1,1
     369              DW$13   .dwtag  DW_TAG_variable, DW_AT_name("sogi_satL_iq"), DW_AT_symbol_name("_sogi_satL_iq")
     370                      .dwattr DW$13, DW_AT_location[DW_OP_addr _sogi_satL_iq]
     371                      .dwattr DW$13, DW_AT_type(*DW$T$153)
     372                      .dwattr DW$13, DW_AT_external(0x01)
     373                      .global _sogi_satH_iq
     374 0000000e       _sogi_satH_iq:  .usect  ".ebss",2,1,1
     375              DW$14   .dwtag  DW_TAG_variable, DW_AT_name("sogi_satH_iq"), DW_AT_symbol_name("_sogi_satH_iq")
     376                      .dwattr DW$14, DW_AT_location[DW_OP_addr _sogi_satH_iq]
     377                      .dwattr DW$14, DW_AT_type(*DW$T$153)
     378                      .dwattr DW$14, DW_AT_external(0x01)
     379                      .global _pll_ph_iq
     380 00000010       _pll_ph_iq:     .usect  ".ebss",2,1,1
     381              DW$15   .dwtag  DW_TAG_variable, DW_AT_name("pll_ph_iq"), DW_AT_symbol_name("_pll_ph_iq")
     382                      .dwattr DW$15, DW_AT_location[DW_OP_addr _pll_ph_iq]
     383                      .dwattr DW$15, DW_AT_type(*DW$T$153)
     384                      .dwattr DW$15, DW_AT_external(0x01)
     385                      .global _pll_sin_iq
     386 00000012       _pll_sin_iq:    .usect  ".ebss",2,1,1
     387              DW$16   .dwtag  DW_TAG_variable, DW_AT_name("pll_sin_iq"), DW_AT_symbol_name("_pll_sin_iq")
     388                      .dwattr DW$16, DW_AT_location[DW_OP_addr _pll_sin_iq]
     389                      .dwattr DW$16, DW_AT_type(*DW$T$153)
     390                      .dwattr DW$16, DW_AT_external(0x01)
     391                      .global _pll_Vo_iq
     392 00000014       _pll_Vo_iq:     .usect  ".ebss",2,1,1
     393              DW$17   .dwtag  DW_TAG_variable, DW_AT_name("pll_Vo_iq"), DW_AT_symbol_name("_pll_Vo_iq")
     394                      .dwattr DW$17, DW_AT_location[DW_OP_addr _pll_Vo_iq]
     395                      .dwattr DW$17, DW_AT_type(*DW$T$153)
     396                      .dwattr DW$17, DW_AT_external(0x01)
     397                      .global _pll_ks_iq
TMS320C2000 COFF Assembler PC v4.1.0 Mon Dec 21 14:54:55 2009

Tools Copyright (c) 1996-2005 Texas Instruments Incorporated
C:\DOCUME~1\ADMINI~1\LOCALS~1\Temp\TI9922                            PAGE   10

     398 00000016       _pll_ks_iq:     .usect  ".ebss",2,1,1
     399              DW$18   .dwtag  DW_TAG_variable, DW_AT_name("pll_ks_iq"), DW_AT_symbol_name("_pll_ks_iq")
     400                      .dwattr DW$18, DW_AT_location[DW_OP_addr _pll_ks_iq]
     401                      .dwattr DW$18, DW_AT_type(*DW$T$153)
     402                      .dwattr DW$18, DW_AT_external(0x01)
     403                      .global _pll_kp_iq
     404 00000018       _pll_kp_iq:     .usect  ".ebss",2,1,1
     405              DW$19   .dwtag  DW_TAG_variable, DW_AT_name("pll_kp_iq"), DW_AT_symbol_name("_pll_kp_iq")
     406                      .dwattr DW$19, DW_AT_location[DW_OP_addr _pll_kp_iq]
     407                      .dwattr DW$19, DW_AT_type(*DW$T$153)
     408                      .dwattr DW$19, DW_AT_external(0x01)
     409                      .global _TS_iq
     410 0000001a       _TS_iq: .usect  ".ebss",2,1,1
     411              DW$20   .dwtag  DW_TAG_variable, DW_AT_name("TS_iq"), DW_AT_symbol_name("_TS_iq")
     412                      .dwattr DW$20, DW_AT_location[DW_OP_addr _TS_iq]
     413                      .dwattr DW$20, DW_AT_type(*DW$T$153)
     414                      .dwattr DW$20, DW_AT_external(0x01)
     415                      .global _pll_cos_iq
     416 0000001c       _pll_cos_iq:    .usect  ".ebss",2,1,1
     417              DW$21   .dwtag  DW_TAG_variable, DW_AT_name("pll_cos_iq"), DW_AT_symbol_name("_pll_cos_iq")
     418                      .dwattr DW$21, DW_AT_location[DW_OP_addr _pll_cos_iq]
     419                      .dwattr DW$21, DW_AT_type(*DW$T$153)
     420                      .dwattr DW$21, DW_AT_external(0x01)
     421                      .global _fll_gain_iq30
     422 0000001e       _fll_gain_iq30: .usect  ".ebss",2,1,1
     423              DW$22   .dwtag  DW_TAG_variable, DW_AT_name("fll_gain_iq30"), DW_AT_symbol_name("_fll_gain_iq30")
     424                      .dwattr DW$22, DW_AT_location[DW_OP_addr _fll_gain_iq30]
     425                      .dwattr DW$22, DW_AT_type(*DW$T$161)
     426                      .dwattr DW$22, DW_AT_external(0x01)
     427                      .global _current_iL_iq
     428 00000020       _current_iL_iq: .usect  ".ebss",2,1,1
     429              DW$23   .dwtag  DW_TAG_variable, DW_AT_name("current_iL_iq"), DW_AT_symbol_name("_current_iL_iq")
     430                      .dwattr DW$23, DW_AT_location[DW_OP_addr _current_iL_iq]
     431                      .dwattr DW$23, DW_AT_type(*DW$T$153)
     432                      .dwattr DW$23, DW_AT_external(0x01)
     433                      .global _current_iG_iq
     434 00000022       _current_iG_iq: .usect  ".ebss",2,1,1
     435              DW$24   .dwtag  DW_TAG_variable, DW_AT_name("current_iG_iq"), DW_AT_symbol_name("_current_iG_iq")
     436                      .dwattr DW$24, DW_AT_location[DW_OP_addr _current_iG_iq]
     437                      .dwattr DW$24, DW_AT_type(*DW$T$153)
     438                      .dwattr DW$24, DW_AT_external(0x01)
     439                      .global _iL_rate_iq
     440 00000024       _iL_rate_iq:    .usect  ".ebss",2,1,1
     441              DW$25   .dwtag  DW_TAG_variable, DW_AT_name("iL_rate_iq"), DW_AT_symbol_name("_iL_rate_iq")
     442                      .dwattr DW$25, DW_AT_location[DW_OP_addr _iL_rate_iq]
     443                      .dwattr DW$25, DW_AT_type(*DW$T$153)
     444                      .dwattr DW$25, DW_AT_external(0x01)
     445                      .global _iG_rate_iq
     446 00000026       _iG_rate_iq:    .usect  ".ebss",2,1,1
     447              DW$26   .dwtag  DW_TAG_variable, DW_AT_name("iG_rate_iq"), DW_AT_symbol_name("_iG_rate_iq")
     448                      .dwattr DW$26, DW_AT_location[DW_OP_addr _iG_rate_iq]
     449                      .dwattr DW$26, DW_AT_type(*DW$T$153)
     450                      .dwattr DW$26, DW_AT_external(0x01)
     451                      .global _current_ref_ff_iq
     452 00000028       _current_ref_ff_iq:     .usect  ".ebss",2,1,1
TMS320C2000 COFF Assembler PC v4.1.0 Mon Dec 21 14:54:55 2009

Tools Copyright (c) 1996-2005 Texas Instruments Incorporated
C:\DOCUME~1\ADMINI~1\LOCALS~1\Temp\TI9922                            PAGE   11

     453              DW$27   .dwtag  DW_TAG_variable, DW_AT_name("current_ref_ff_iq"), DW_AT_symbol_name("_current_ref_ff_iq")
     454                      .dwattr DW$27, DW_AT_location[DW_OP_addr _current_ref_ff_iq]
     455                      .dwattr DW$27, DW_AT_type(*DW$T$153)
     456                      .dwattr DW$27, DW_AT_external(0x01)
     457                      .global _current_Vg_ff_iq
     458 0000002a       _current_Vg_ff_iq:      .usect  ".ebss",2,1,1
     459              DW$28   .dwtag  DW_TAG_variable, DW_AT_name("current_Vg_ff_iq"), DW_AT_symbol_name("_current_Vg_ff_iq")
     460                      .dwattr DW$28, DW_AT_location[DW_OP_addr _current_Vg_ff_iq]
     461                      .dwattr DW$28, DW_AT_type(*DW$T$153)
     462                      .dwattr DW$28, DW_AT_external(0x01)
     463                      .global _Vg_ff_rate_iq
     464 0000002c       _Vg_ff_rate_iq: .usect  ".ebss",2,1,1
     465              DW$29   .dwtag  DW_TAG_variable, DW_AT_name("Vg_ff_rate_iq"), DW_AT_symbol_name("_Vg_ff_rate_iq")
     466                      .dwattr DW$29, DW_AT_location[DW_OP_addr _Vg_ff_rate_iq]
     467                      .dwattr DW$29, DW_AT_type(*DW$T$153)
     468                      .dwattr DW$29, DW_AT_external(0x01)
     469                      .global _ref_ff_rate_iq
     470 0000002e       _ref_ff_rate_iq:        .usect  ".ebss",2,1,1
     471              DW$30   .dwtag  DW_TAG_variable, DW_AT_name("ref_ff_rate_iq"), DW_AT_symbol_name("_ref_ff_rate_iq")
     472                      .dwattr DW$30, DW_AT_location[DW_OP_addr _ref_ff_rate_iq]
     473                      .dwattr DW$30, DW_AT_type(*DW$T$153)
     474                      .dwattr DW$30, DW_AT_external(0x01)
     475                      .global _current_duty_iq
     476 00000030       _current_duty_iq:       .usect  ".ebss",2,1,1
     477              DW$31   .dwtag  DW_TAG_variable, DW_AT_name("current_duty_iq"), DW_AT_symbol_name("_current_duty_iq")
     478                      .dwattr DW$31, DW_AT_location[DW_OP_addr _current_duty_iq]
     479                      .dwattr DW$31, DW_AT_type(*DW$T$153)
     480                      .dwattr DW$31, DW_AT_external(0x01)
     481                      .global _current_error_PI_iq
     482 00000032       _current_error_PI_iq:   .usect  ".ebss",2,1,1
     483              DW$32   .dwtag  DW_TAG_variable, DW_AT_name("current_error_PI_iq"), DW_AT_symbol_name("_current_error_PI_iq")
     484                      .dwattr DW$32, DW_AT_location[DW_OP_addr _current_error_PI_iq]
     485                      .dwattr DW$32, DW_AT_type(*DW$T$153)
     486                      .dwattr DW$32, DW_AT_external(0x01)
     487                      .global _Current_ampl_iq
     488 00000034       _Current_ampl_iq:       .usect  ".ebss",2,1,1
     489              DW$33   .dwtag  DW_TAG_variable, DW_AT_name("Current_ampl_iq"), DW_AT_symbol_name("_Current_ampl_iq")
     490                      .dwattr DW$33, DW_AT_location[DW_OP_addr _Current_ampl_iq]
     491                      .dwattr DW$33, DW_AT_type(*DW$T$153)
     492                      .dwattr DW$33, DW_AT_external(0x01)
     493                      .global _kiTs_iq
     494 00000036       _kiTs_iq:       .usect  ".ebss",2,1,1
     495              DW$34   .dwtag  DW_TAG_variable, DW_AT_name("kiTs_iq"), DW_AT_symbol_name("_kiTs_iq")
     496                      .dwattr DW$34, DW_AT_location[DW_OP_addr _kiTs_iq]
     497                      .dwattr DW$34, DW_AT_type(*DW$T$153)
     498                      .dwattr DW$34, DW_AT_external(0x01)
     499                      .global _kp_iq
     500 00000038       _kp_iq: .usect  ".ebss",2,1,1
     501              DW$35   .dwtag  DW_TAG_variable, DW_AT_name("kp_iq"), DW_AT_symbol_name("_kp_iq")
     502                      .dwattr DW$35, DW_AT_location[DW_OP_addr _kp_iq]
     503                      .dwattr DW$35, DW_AT_type(*DW$T$153)
     504                      .dwattr DW$35, DW_AT_external(0x01)
     505                      .global _current_feedforward_iq
     506 0000003a       _current_feedforward_iq:        .usect  ".ebss",2,1,1
     507              DW$36   .dwtag  DW_TAG_variable, DW_AT_name("current_feedforward_iq"), DW_AT_symbol_name("_current_feedforwar
TMS320C2000 COFF Assembler PC v4.1.0 Mon Dec 21 14:54:55 2009

Tools Copyright (c) 1996-2005 Texas Instruments Incorporated
C:\DOCUME~1\ADMINI~1\LOCALS~1\Temp\TI9922                            PAGE   12

     508                      .dwattr DW$36, DW_AT_location[DW_OP_addr _current_feedforward_iq]
     509                      .dwattr DW$36, DW_AT_type(*DW$T$153)
     510                      .dwattr DW$36, DW_AT_external(0x01)
     511                      .global _current_ref_iq
     512 0000003c       _current_ref_iq:        .usect  ".ebss",2,1,1
     513              DW$37   .dwtag  DW_TAG_variable, DW_AT_name("current_ref_iq"), DW_AT_symbol_name("_current_ref_iq")
     514                      .dwattr DW$37, DW_AT_location[DW_OP_addr _current_ref_iq]
     515                      .dwattr DW$37, DW_AT_type(*DW$T$153)
     516                      .dwattr DW$37, DW_AT_external(0x01)
     517                      .global _current_sat_PI_iq
     518 0000003e       _current_sat_PI_iq:     .usect  ".ebss",2,1,1
     519              DW$38   .dwtag  DW_TAG_variable, DW_AT_name("current_sat_PI_iq"), DW_AT_symbol_name("_current_sat_PI_iq")
     520                      .dwattr DW$38, DW_AT_location[DW_OP_addr _current_sat_PI_iq]
     521                      .dwattr DW$38, DW_AT_type(*DW$T$153)
     522                      .dwattr DW$38, DW_AT_external(0x01)
     523                      .global _current_pwm_iq
     524 00000040       _current_pwm_iq:        .usect  ".ebss",2,1,1
     525              DW$39   .dwtag  DW_TAG_variable, DW_AT_name("current_pwm_iq"), DW_AT_symbol_name("_current_pwm_iq")
     526                      .dwattr DW$39, DW_AT_location[DW_OP_addr _current_pwm_iq]
     527                      .dwattr DW$39, DW_AT_type(*DW$T$153)
     528                      .dwattr DW$39, DW_AT_external(0x01)
     529                      .global _current_error_iq
     530 00000042       _current_error_iq:      .usect  ".ebss",2,1,1
     531              DW$40   .dwtag  DW_TAG_variable, DW_AT_name("current_error_iq"), DW_AT_symbol_name("_current_error_iq")
     532                      .dwattr DW$40, DW_AT_location[DW_OP_addr _current_error_iq]
     533                      .dwattr DW$40, DW_AT_type(*DW$T$153)
     534                      .dwattr DW$40, DW_AT_external(0x01)
     535              
     536              DW$41   .dwtag  DW_TAG_subprogram, DW_AT_name("__IQmpy"), DW_AT_symbol_name("___IQmpy")
     537                      .dwattr DW$41, DW_AT_type(*DW$T$12)
     538                      .dwattr DW$41, DW_AT_declaration(0x01)
     539                      .dwattr DW$41, DW_AT_external(0x01)
     540              DW$42   .dwtag  DW_TAG_formal_parameter, DW_AT_type(*DW$T$12)
     541              DW$43   .dwtag  DW_TAG_formal_parameter, DW_AT_type(*DW$T$12)
     542              DW$44   .dwtag  DW_TAG_formal_parameter, DW_AT_type(*DW$T$10)
     543                      .dwendtag DW$41
     544              
     545              
     546              DW$45   .dwtag  DW_TAG_subprogram, DW_AT_name("__IQsat"), DW_AT_symbol_name("___IQsat")
     547                      .dwattr DW$45, DW_AT_type(*DW$T$12)
     548                      .dwattr DW$45, DW_AT_declaration(0x01)
     549                      .dwattr DW$45, DW_AT_external(0x01)
     550              DW$46   .dwtag  DW_TAG_formal_parameter, DW_AT_type(*DW$T$12)
     551              DW$47   .dwtag  DW_TAG_formal_parameter, DW_AT_type(*DW$T$12)
     552              DW$48   .dwtag  DW_TAG_formal_parameter, DW_AT_type(*DW$T$12)
     553                      .dwendtag DW$45
     554              
     555                      .global _con_sinref_iq
     556 00000044       _con_sinref_iq: .usect  ".ebss",2,1,1
     557              DW$49   .dwtag  DW_TAG_variable, DW_AT_name("con_sinref_iq"), DW_AT_symbol_name("_con_sinref_iq")
     558                      .dwattr DW$49, DW_AT_location[DW_OP_addr _con_sinref_iq]
     559                      .dwattr DW$49, DW_AT_type(*DW$T$153)
     560                      .dwattr DW$49, DW_AT_external(0x01)
     561                      .global _con_M_iq
     562 00000046       _con_M_iq:      .usect  ".ebss",2,1,1
TMS320C2000 COFF Assembler PC v4.1.0 Mon Dec 21 14:54:55 2009

Tools Copyright (c) 1996-2005 Texas Instruments Incorporated
C:\DOCUME~1\ADMINI~1\LOCALS~1\Temp\TI9922                            PAGE   13

     563              DW$50   .dwtag  DW_TAG_variable, DW_AT_name("con_M_iq"), DW_AT_symbol_name("_con_M_iq")
     564                      .dwattr DW$50, DW_AT_location[DW_OP_addr _con_M_iq]
     565                      .dwattr DW$50, DW_AT_type(*DW$T$153)
     566                      .dwattr DW$50, DW_AT_external(0x01)
     567                      .global _ADC_offset_iq
     568 00000048       _ADC_offset_iq: .usect  ".ebss",2,1,1
     569              DW$51   .dwtag  DW_TAG_variable, DW_AT_name("ADC_offset_iq"), DW_AT_symbol_name("_ADC_offset_iq")
     570                      .dwattr DW$51, DW_AT_location[DW_OP_addr _ADC_offset_iq]
     571                      .dwattr DW$51, DW_AT_type(*DW$T$153)
     572                      .dwattr DW$51, DW_AT_external(0x01)
     573              
     574              DW$52   .dwtag  DW_TAG_subprogram, DW_AT_name("_IQ19cos"), DW_AT_symbol_name("__IQ19cos")
     575                      .dwattr DW$52, DW_AT_type(*DW$T$12)
     576                      .dwattr DW$52, DW_AT_declaration(0x01)
     577                      .dwattr DW$52, DW_AT_external(0x01)
     578              DW$53   .dwtag  DW_TAG_formal_parameter, DW_AT_type(*DW$T$12)
     579                      .dwendtag DW$52
     580              
     581              
     582              DW$54   .dwtag  DW_TAG_subprogram, DW_AT_name("_IQ19mpyI32int"), DW_AT_symbol_name("__IQ19mpyI32int")
     583                      .dwattr DW$54, DW_AT_type(*DW$T$12)
     584                      .dwattr DW$54, DW_AT_declaration(0x01)
     585                      .dwattr DW$54, DW_AT_external(0x01)
     586              DW$55   .dwtag  DW_TAG_formal_parameter, DW_AT_type(*DW$T$12)
     587              DW$56   .dwtag  DW_TAG_formal_parameter, DW_AT_type(*DW$T$12)
     588                      .dwendtag DW$54
     589              
     590              
     591              DW$57   .dwtag  DW_TAG_subprogram, DW_AT_name("_IQ19div"), DW_AT_symbol_name("__IQ19div")
     592                      .dwattr DW$57, DW_AT_type(*DW$T$12)
     593                      .dwattr DW$57, DW_AT_declaration(0x01)
     594                      .dwattr DW$57, DW_AT_external(0x01)
     595              DW$58   .dwtag  DW_TAG_formal_parameter, DW_AT_type(*DW$T$12)
     596              DW$59   .dwtag  DW_TAG_formal_parameter, DW_AT_type(*DW$T$12)
     597                      .dwendtag DW$57
     598              
     599              
     600              DW$60   .dwtag  DW_TAG_subprogram, DW_AT_name("_IQ19sin"), DW_AT_symbol_name("__IQ19sin")
     601                      .dwattr DW$60, DW_AT_type(*DW$T$12)
     602                      .dwattr DW$60, DW_AT_declaration(0x01)
     603                      .dwattr DW$60, DW_AT_external(0x01)
     604              DW$61   .dwtag  DW_TAG_formal_parameter, DW_AT_type(*DW$T$12)
     605                      .dwendtag DW$60
     606              
     607              
     608              DW$62   .dwtag  DW_TAG_subprogram, DW_AT_name("__IQxmpy"), DW_AT_symbol_name("___IQxmpy")
     609                      .dwattr DW$62, DW_AT_type(*DW$T$12)
     610                      .dwattr DW$62, DW_AT_declaration(0x01)
     611                      .dwattr DW$62, DW_AT_external(0x01)
     612              DW$63   .dwtag  DW_TAG_formal_parameter, DW_AT_type(*DW$T$12)
     613              DW$64   .dwtag  DW_TAG_formal_parameter, DW_AT_type(*DW$T$12)
     614              DW$65   .dwtag  DW_TAG_formal_parameter, DW_AT_type(*DW$T$10)
     615                      .dwendtag DW$62
     616              
     617                      .global _sogi_gain_iq
TMS320C2000 COFF Assembler PC v4.1.0 Mon Dec 21 14:54:55 2009

Tools Copyright (c) 1996-2005 Texas Instruments Incorporated
C:\DOCUME~1\ADMINI~1\LOCALS~1\Temp\TI9922                            PAGE   14

     618 0000004a       _sogi_gain_iq:  .usect  ".ebss",2,1,1
     619              DW$66   .dwtag  DW_TAG_variable, DW_AT_name("sogi_gain_iq"), DW_AT_symbol_name("_sogi_gain_iq")
     620                      .dwattr DW$66, DW_AT_location[DW_OP_addr _sogi_gain_iq]
     621                      .dwattr DW$66, DW_AT_type(*DW$T$153)
     622                      .dwattr DW$66, DW_AT_external(0x01)
     623                      .global _fll_out_iq
     624 0000004c       _fll_out_iq:    .usect  ".ebss",2,1,1
     625              DW$67   .dwtag  DW_TAG_variable, DW_AT_name("fll_out_iq"), DW_AT_symbol_name("_fll_out_iq")
     626                      .dwattr DW$67, DW_AT_location[DW_OP_addr _fll_out_iq]
     627                      .dwattr DW$67, DW_AT_type(*DW$T$153)
     628                      .dwattr DW$67, DW_AT_external(0x01)
     629                      .global _sogiT1_iq30
     630 0000004e       _sogiT1_iq30:   .usect  ".ebss",2,1,1
     631              DW$68   .dwtag  DW_TAG_variable, DW_AT_name("sogiT1_iq30"), DW_AT_symbol_name("_sogiT1_iq30")
     632                      .dwattr DW$68, DW_AT_location[DW_OP_addr _sogiT1_iq30]
     633                      .dwattr DW$68, DW_AT_type(*DW$T$161)
     634                      .dwattr DW$68, DW_AT_external(0x01)
     635                      .global _pwm_in_iq
     636 00000050       _pwm_in_iq:     .usect  ".ebss",2,1,1
     637              DW$69   .dwtag  DW_TAG_variable, DW_AT_name("pwm_in_iq"), DW_AT_symbol_name("_pwm_in_iq")
     638                      .dwattr DW$69, DW_AT_location[DW_OP_addr _pwm_in_iq]
     639                      .dwattr DW$69, DW_AT_type(*DW$T$153)
     640                      .dwattr DW$69, DW_AT_external(0x01)
     641                      .global _sogiT2_iq30
     642 00000052       _sogiT2_iq30:   .usect  ".ebss",2,1,1
     643              DW$70   .dwtag  DW_TAG_variable, DW_AT_name("sogiT2_iq30"), DW_AT_symbol_name("_sogiT2_iq30")
     644                      .dwattr DW$70, DW_AT_location[DW_OP_addr _sogiT2_iq30]
     645                      .dwattr DW$70, DW_AT_type(*DW$T$161)
     646                      .dwattr DW$70, DW_AT_external(0x01)
     647                      .global _sogi_out2_iq
     648 00000054       _sogi_out2_iq:  .usect  ".ebss",4,1,1
     649              DW$71   .dwtag  DW_TAG_variable, DW_AT_name("sogi_out2_iq"), DW_AT_symbol_name("_sogi_out2_iq")
     650                      .dwattr DW$71, DW_AT_location[DW_OP_addr _sogi_out2_iq]
     651                      .dwattr DW$71, DW_AT_type(*DW$T$156)
     652                      .dwattr DW$71, DW_AT_external(0x01)
     653                      .global _pll_Vd_iq
     654 00000058       _pll_Vd_iq:     .usect  ".ebss",4,1,1
     655              DW$72   .dwtag  DW_TAG_variable, DW_AT_name("pll_Vd_iq"), DW_AT_symbol_name("_pll_Vd_iq")
     656                      .dwattr DW$72, DW_AT_location[DW_OP_addr _pll_Vd_iq]
     657                      .dwattr DW$72, DW_AT_type(*DW$T$156)
     658                      .dwattr DW$72, DW_AT_external(0x01)
     659                      .global _current_error_ki_iq
     660 0000005c       _current_error_ki_iq:   .usect  ".ebss",4,1,1
     661              DW$73   .dwtag  DW_TAG_variable, DW_AT_name("current_error_ki_iq"), DW_AT_symbol_name("_current_error_ki_iq")
     662                      .dwattr DW$73, DW_AT_location[DW_OP_addr _current_error_ki_iq]
     663                      .dwattr DW$73, DW_AT_type(*DW$T$156)
     664                      .dwattr DW$73, DW_AT_external(0x01)
     665                      .global _sogi_out1_iq
     666 00000060       _sogi_out1_iq:  .usect  ".ebss",6,1,1
     667              DW$74   .dwtag  DW_TAG_variable, DW_AT_name("sogi_out1_iq"), DW_AT_symbol_name("_sogi_out1_iq")
     668                      .dwattr DW$74, DW_AT_location[DW_OP_addr _sogi_out1_iq]
     669                      .dwattr DW$74, DW_AT_type(*DW$T$155)
     670                      .dwattr DW$74, DW_AT_external(0x01)
     671                      .global _sogi_in2_iq
     672 00000066       _sogi_in2_iq:   .usect  ".ebss",6,1,1
TMS320C2000 COFF Assembler PC v4.1.0 Mon Dec 21 14:54:55 2009

Tools Copyright (c) 1996-2005 Texas Instruments Incorporated
C:\DOCUME~1\ADMINI~1\LOCALS~1\Temp\TI9922                            PAGE   15

     673              DW$75   .dwtag  DW_TAG_variable, DW_AT_name("sogi_in2_iq"), DW_AT_symbol_name("_sogi_in2_iq")
     674                      .dwattr DW$75, DW_AT_location[DW_OP_addr _sogi_in2_iq]
     675                      .dwattr DW$75, DW_AT_type(*DW$T$155)
     676                      .dwattr DW$75, DW_AT_external(0x01)
     677                      .global _sogi_in1_iq
     678 0000006c       _sogi_in1_iq:   .usect  ".ebss",6,1,1
     679              DW$76   .dwtag  DW_TAG_variable, DW_AT_name("sogi_in1_iq"), DW_AT_symbol_name("_sogi_in1_iq")
     680                      .dwattr DW$76, DW_AT_location[DW_OP_addr _sogi_in1_iq]
     681                      .dwattr DW$76, DW_AT_type(*DW$T$155)
     682                      .dwattr DW$76, DW_AT_external(0x01)
     683                      .global _ADC_out_iq
     684 00000072       _ADC_out_iq:    .usect  ".ebss",12,1,1
     685              DW$77   .dwtag  DW_TAG_variable, DW_AT_name("ADC_out_iq"), DW_AT_symbol_name("_ADC_out_iq")
     686                      .dwattr DW$77, DW_AT_location[DW_OP_addr _ADC_out_iq]
     687                      .dwattr DW$77, DW_AT_type(*DW$T$154)
     688                      .dwattr DW$77, DW_AT_external(0x01)
     689                      .global _ADC_fk_iq
     690 00000080       _ADC_fk_iq:     .usect  ".ebss",12,1,1
     691              DW$78   .dwtag  DW_TAG_variable, DW_AT_name("ADC_fk_iq"), DW_AT_symbol_name("_ADC_fk_iq")
     692                      .dwattr DW$78, DW_AT_location[DW_OP_addr _ADC_fk_iq]
     693                      .dwattr DW$78, DW_AT_type(*DW$T$159)
     694                      .dwattr DW$78, DW_AT_external(0x01)
     695              DW$79   .dwtag  DW_TAG_variable, DW_AT_name("PieCtrlRegs"), DW_AT_symbol_name("_PieCtrlRegs")
     696                      .dwattr DW$79, DW_AT_type(*DW$T$216)
     697                      .dwattr DW$79, DW_AT_declaration(0x01)
     698                      .dwattr DW$79, DW_AT_external(0x01)
     699              DW$80   .dwtag  DW_TAG_variable, DW_AT_name("AdcRegs"), DW_AT_symbol_name("_AdcRegs")
     700                      .dwattr DW$80, DW_AT_type(*DW$T$175)
     701                      .dwattr DW$80, DW_AT_declaration(0x01)
     702                      .dwattr DW$80, DW_AT_external(0x01)
     703              DW$81   .dwtag  DW_TAG_variable, DW_AT_name("SysCtrlRegs"), DW_AT_symbol_name("_SysCtrlRegs")
     704                      .dwattr DW$81, DW_AT_type(*DW$T$219)
     705                      .dwattr DW$81, DW_AT_declaration(0x01)
     706                      .dwattr DW$81, DW_AT_external(0x01)
     707              DW$82   .dwtag  DW_TAG_variable, DW_AT_name("GpioDataRegs"), DW_AT_symbol_name("_GpioDataRegs")
     708                      .dwattr DW$82, DW_AT_type(*DW$T$212)
     709                      .dwattr DW$82, DW_AT_declaration(0x01)
     710                      .dwattr DW$82, DW_AT_external(0x01)
     711              DW$83   .dwtag  DW_TAG_variable, DW_AT_name("EPwm2Regs"), DW_AT_symbol_name("_EPwm2Regs")
     712                      .dwattr DW$83, DW_AT_type(*DW$T$204)
     713                      .dwattr DW$83, DW_AT_declaration(0x01)
     714                      .dwattr DW$83, DW_AT_external(0x01)
     715              DW$84   .dwtag  DW_TAG_variable, DW_AT_name("EPwm6Regs"), DW_AT_symbol_name("_EPwm6Regs")
     716                      .dwattr DW$84, DW_AT_type(*DW$T$204)
     717                      .dwattr DW$84, DW_AT_declaration(0x01)
     718                      .dwattr DW$84, DW_AT_external(0x01)
     719              DW$85   .dwtag  DW_TAG_variable, DW_AT_name("EPwm1Regs"), DW_AT_symbol_name("_EPwm1Regs")
     720                      .dwattr DW$85, DW_AT_type(*DW$T$204)
     721                      .dwattr DW$85, DW_AT_declaration(0x01)
     722                      .dwattr DW$85, DW_AT_external(0x01)
     723              DW$86   .dwtag  DW_TAG_variable, DW_AT_name("GpioCtrlRegs"), DW_AT_symbol_name("_GpioCtrlRegs")
     724                      .dwattr DW$86, DW_AT_type(*DW$T$211)
     725                      .dwattr DW$86, DW_AT_declaration(0x01)
     726                      .dwattr DW$86, DW_AT_external(0x01)
     727              DW$87   .dwtag  DW_TAG_variable, DW_AT_name("PieVectTable"), DW_AT_symbol_name("_PieVectTable")
TMS320C2000 COFF Assembler PC v4.1.0 Mon Dec 21 14:54:55 2009

Tools Copyright (c) 1996-2005 Texas Instruments Incorporated
C:\DOCUME~1\ADMINI~1\LOCALS~1\Temp\TI9922                            PAGE   16

     728                      .dwattr DW$87, DW_AT_type(*DW$T$124)
     729                      .dwattr DW$87, DW_AT_declaration(0x01)
     730                      .dwattr DW$87, DW_AT_external(0x01)
     731              ;       D:\CCStudio_v3.1\C2000\cgtools\bin\ac2000.exe -@C:\DOCUME~1\ADMINI~1\LOCALS~1\Temp\TI9924 
     732 00000000               .sect   ".text"
     733                      .global _main
     734              
     735              DW$88   .dwtag  DW_TAG_subprogram, DW_AT_name("main"), DW_AT_symbol_name("_main")
     736                      .dwattr DW$88, DW_AT_low_pc(_main)
     737                      .dwattr DW$88, DW_AT_high_pc(0x00)
     738                      .dwattr DW$88, DW_AT_begin_file("mainfeedforward.c")
     739                      .dwattr DW$88, DW_AT_begin_line(0x92)
     740                      .dwattr DW$88, DW_AT_begin_column(0x06)
     741                      .dwpsn  "mainfeedforward.c",147,1
     742              
     743                      .dwfde DW$CIE
     744              
     745              ;***************************************************************
     746              ;* FNAME: _main                         FR SIZE:   2           *
     747              ;*                                                             *
     748              ;* FUNCTION ENVIRONMENT                                        *
     749              ;*                                                             *
     750              ;* FUNCTION PROPERTIES                                         *
     751              ;*                            0 Parameter,  2 Auto,  0 SOE     *
     752              ;***************************************************************
     753              
     754 00000000       _main:
     755                      .dwcfa  0x1d, -2
     756                      .dwcfa  0x1c, 26, 0
     757                      .dwcfa  0x09, 40, 26
     758 00000000 FE02          ADDB      SP,#2
     759                      .dwcfa  0x1d, -4
     760              DW$89   .dwtag  DW_TAG_variable, DW_AT_name("j"), DW_AT_symbol_name("_j")
     761                      .dwattr DW$89, DW_AT_type(*DW$T$10)
     762                      .dwattr DW$89, DW_AT_location[DW_OP_breg20 -1]
     763              DW$90   .dwtag  DW_TAG_variable, DW_AT_name("k"), DW_AT_symbol_name("_k")
     764                      .dwattr DW$90, DW_AT_type(*DW$T$10)
     765                      .dwattr DW$90, DW_AT_location[DW_OP_breg20 -2]
     766                      .dwpsn  "mainfeedforward.c",148,8
     767 00000001 2B41          MOV       *-SP[1],#0            ; |148| 
     768                      .dwpsn  "mainfeedforward.c",148,12
     769 00000002 2B42          MOV       *-SP[2],#0            ; |148| 
     770                      .dwpsn  "mainfeedforward.c",152,2
     771 00000003 7640!         LCR       #_InitSysCtrl         ; |152| 
         00000004 0000 
     772                      ; call occurs [#_InitSysCtrl] ; |152| 
     773                      .dwpsn  "mainfeedforward.c",153,2
     774 00000005 3B10   setc INTM
     775                      .dwpsn  "mainfeedforward.c",158,2
     776 00000006 FF69          SPM       #0
     777 00000007 7640!         LCR       #_InitPieCtrl         ; |158| 
         00000008 0000 
     778                      ; call occurs [#_InitPieCtrl] ; |158| 
     779                      .dwpsn  "mainfeedforward.c",159,2
     780 00000009 7626          AND       IER,#0                ; |159| 
TMS320C2000 COFF Assembler PC v4.1.0 Mon Dec 21 14:54:55 2009

Tools Copyright (c) 1996-2005 Texas Instruments Incorporated
C:\DOCUME~1\ADMINI~1\LOCALS~1\Temp\TI9922                            PAGE   17

         0000000a 0000 
     781                      .dwpsn  "mainfeedforward.c",160,2
     782 0000000b 762F          AND       IFR,#0                ; |160| 
         0000000c 0000 
     783                      .dwpsn  "mainfeedforward.c",162,2
     784 0000000d 7640!         LCR       #_InitPieVectTable    ; |162| 
         0000000e 0000 
     785                      ; call occurs [#_InitPieVectTable] ; |162| 
     786                      .dwpsn  "mainfeedforward.c",167,2
     787 0000000f 7622   EALLOW
     788                      .dwpsn  "mainfeedforward.c",168,2
     789 00000010 761F!         MOVW      DP,#_GpioCtrlRegs+6
         00000011 0000 
     790 00000012 1806!         AND       @_GpioCtrlRegs+6,#0xfff3 ; |168| 
         00000013 FFF3 
     791                      .dwpsn  "mainfeedforward.c",169,2
     792 00000014 1A0A!         OR        @_GpioCtrlRegs+10,#0x0002 ; |169| 
         00000015 0002 
     793                      .dwpsn  "mainfeedforward.c",170,2
     794 00000016 761F!         MOVW      DP,#_GpioDataRegs+4
         00000017 0000 
     795 00000018 1A04!         OR        @_GpioDataRegs+4,#0x0002 ; |170| 
         00000019 0002 
     796                      .dwpsn  "mainfeedforward.c",173,2
     797 0000001a 761F!         MOVW      DP,#_GpioCtrlRegs+6
         0000001b 0000 
     798 0000001c 1806!         AND       @_GpioCtrlRegs+6,#0xff3f ; |173| 
         0000001d FF3F 
     799                      .dwpsn  "mainfeedforward.c",174,2
     800 0000001e 1A0A!         OR        @_GpioCtrlRegs+10,#0x0008 ; |174| 
         0000001f 0008 
     801                      .dwpsn  "mainfeedforward.c",175,2
     802 00000020 761F!         MOVW      DP,#_GpioDataRegs+4
         00000021 0000 
     803 00000022 1A04!         OR        @_GpioDataRegs+4,#0x0008 ; |175| 
         00000023 0008 
     804                      .dwpsn  "mainfeedforward.c",177,2
     805 00000024 761F!         MOVW      DP,#_GpioCtrlRegs+8
         00000025 0000 
     806 00000026 1808!         AND       @_GpioCtrlRegs+8,#0xf3ff ; |177| 
         00000027 F3FF 
     807                      .dwpsn  "mainfeedforward.c",178,2
     808 00000028 1A0B!         OR        @_GpioCtrlRegs+11,#0x0020 ; |178| 
         00000029 0020 
     809                      .dwpsn  "mainfeedforward.c",179,2
     810 0000002a 761F!         MOVW      DP,#_GpioDataRegs+5
         0000002b 0000 
     811 0000002c 1A05!         OR        @_GpioDataRegs+5,#0x0020 ; |179| 
         0000002d 0020 
     812                      .dwpsn  "mainfeedforward.c",183,2
     813 0000002e 761A   EDIS
     814                      .dwpsn  "mainfeedforward.c",203,2
     815 0000002f 7622   EALLOW
     816                      .dwpsn  "mainfeedforward.c",205,2
     817 00000030 761F!         MOVW      DP,#_GpioCtrlRegs+7
TMS320C2000 COFF Assembler PC v4.1.0 Mon Dec 21 14:54:55 2009

Tools Copyright (c) 1996-2005 Texas Instruments Incorporated
C:\DOCUME~1\ADMINI~1\LOCALS~1\Temp\TI9922                            PAGE   18

         00000031 0000 
     818 00000032 CC07!         AND       AL,@_GpioCtrlRegs+7,#0xfcff ; |205| 
         00000033 FCFF 
     819 00000034 1AA9          OR        AL,#0x0100            ; |205| 
         00000035 0100 
     820 00000036 9607!         MOV       @_GpioCtrlRegs+7,AL   ; |205| 
     821                      .dwpsn  "mainfeedforward.c",207,2
     822 00000037 761A   EDIS
     823                      .dwpsn  "mainfeedforward.c",209,2
     824 00000038 7622   EALLOW
     825                      .dwpsn  "mainfeedforward.c",210,2
     826 00000039 761F!         MOVW      DP,#_SysCtrlRegs+12
         0000003a 0000 
     827 0000003b 1A0C!         OR        @_SysCtrlRegs+12,#0x0004 ; |210| 
         0000003c 0004 
     828                      .dwpsn  "mainfeedforward.c",211,2
     829 0000003d 761A   EDIS
     830                      .dwpsn  "mainfeedforward.c",219,2
     831 0000003e 761F!         MOVW      DP,#_EPwm1Regs
         0000003f 0000 
     832 00000040 1800!         AND       @_EPwm1Regs,#0xfff7   ; |219| 
         00000041 FFF7 
     833                      .dwpsn  "mainfeedforward.c",220,2
     834 00000042 761F-         MOVW      DP,#_period
         00000043 0000 
     835 00000044 9205-         MOV       AL,@_period           ; |220| 
     836 00000045 761F!         MOVW      DP,#_EPwm1Regs+5
         00000046 0000 
     837 00000047 9605!         MOV       @_EPwm1Regs+5,AL      ; |220| 
     838                      .dwpsn  "mainfeedforward.c",221,2
     839 00000048 761F-         MOVW      DP,#_period
         00000049 0000 
     840 0000004a 9305-         MOV       AH,@_period           ; |221| 
     841 0000004b 92A8          MOV       AL,AH                 ; |221| 
     842 0000004c FFCE          LSR       AL,15                 ; |221| 
     843 0000004d 94A8          ADD       AL,AH                 ; |221| 
     844 0000004e 761F!         MOVW      DP,#_EPwm1Regs+9
         0000004f 0000 
     845 00000050 FFA0          ASR       AL,1                  ; |221| 
     846 00000051 9609!         MOV       @_EPwm1Regs+9,AL      ; |221| 
     847                      .dwpsn  "mainfeedforward.c",222,2
     848 00000052 2B0A!         MOV       @_EPwm1Regs+10,#0     ; |222| 
     849                      .dwpsn  "mainfeedforward.c",223,5
     850 00000053 2B03!         MOV       @_EPwm1Regs+3,#0      ; |223| 
     851                      .dwpsn  "mainfeedforward.c",224,2
     852 00000054 2B04!         MOV       @_EPwm1Regs+4,#0      ; |224| 
     853                      .dwpsn  "mainfeedforward.c",226,2
     854 00000055 CC00!         AND       AL,@_EPwm1Regs,#0xfffc ; |226| 
         00000056 FFFC 
     855 00000057 5002          ORB       AL,#0x02              ; |226| 
     856 00000058 9600!         MOV       @_EPwm1Regs,AL        ; |226| 
     857                      .dwpsn  "mainfeedforward.c",227,2
     858 00000059 1A00!         OR        @_EPwm1Regs,#0x0004   ; |227| 
         0000005a 0004 
     859                      .dwpsn  "mainfeedforward.c",229,2
TMS320C2000 COFF Assembler PC v4.1.0 Mon Dec 21 14:54:55 2009

Tools Copyright (c) 1996-2005 Texas Instruments Incorporated
C:\DOCUME~1\ADMINI~1\LOCALS~1\Temp\TI9922                            PAGE   19

     860 0000005b CC00!         AND       AL,@_EPwm1Regs,#0xffcf ; |229| 
         0000005c FFCF 
     861 0000005d 5010          ORB       AL,#0x10              ; |229| 
     862 0000005e 9600!         MOV       @_EPwm1Regs,AL        ; |229| 
     863                      .dwpsn  "mainfeedforward.c",231,2
     864 0000005f 1800!         AND       @_EPwm1Regs,#0xfc7f   ; |231| 
         00000060 FC7F 
     865                      .dwpsn  "mainfeedforward.c",232,2
     866 00000061 1800!         AND       @_EPwm1Regs,#0xe3ff   ; |232| 
         00000062 E3FF 
     867                      .dwpsn  "mainfeedforward.c",233,5
     868 00000063 2B03!         MOV       @_EPwm1Regs+3,#0      ; |233| 
     869                      .dwpsn  "mainfeedforward.c",236,2
     870 00000064 1807!         AND       @_EPwm1Regs+7,#0xffef ; |236| 
         00000065 FFEF 
     871                      .dwpsn  "mainfeedforward.c",238,2
     872 00000066 CC07!         AND       AL,@_EPwm1Regs+7,#0xfffc ; |238| 
         00000067 FFFC 
     873 00000068 5001          ORB       AL,#0x01              ; |238| 
     874 00000069 9607!         MOV       @_EPwm1Regs+7,AL      ; |238| 
     875                      .dwpsn  "mainfeedforward.c",240,2
     876 0000006a CC0B!         AND       AL,@_EPwm1Regs+11,#0xffcf ; |240| 
         0000006b FFCF 
     877 0000006c 5010          ORB       AL,#0x10              ; |240| 
     878 0000006d 960B!         MOV       @_EPwm1Regs+11,AL     ; |240| 
     879                      .dwpsn  "mainfeedforward.c",241,2
     880 0000006e CC0B!         AND       AL,@_EPwm1Regs+11,#0xff3f ; |241| 
         0000006f FF3F 
     881 00000070 5080          ORB       AL,#0x80              ; |241| 
     882 00000071 960B!         MOV       @_EPwm1Regs+11,AL     ; |241| 
     883                      .dwpsn  "mainfeedforward.c",245,2
     884 00000072 1A0F!         OR        @_EPwm1Regs+15,#0x0003 ; |245| 
         00000073 0003 
     885                      .dwpsn  "mainfeedforward.c",246,2
     886 00000074 1A0F!         OR        @_EPwm1Regs+15,#0x000c ; |246| 
         00000075 000C 
     887                      .dwpsn  "mainfeedforward.c",247,2
     888 00000076 9A14          MOVB      AL,#20                ; |247| 
     889 00000077 9610!         MOV       @_EPwm1Regs+16,AL     ; |247| 
     890                      .dwpsn  "mainfeedforward.c",248,2
     891 00000078 9611!         MOV       @_EPwm1Regs+17,AL     ; |248| 
     892                      .dwpsn  "mainfeedforward.c",250,2
     893 00000079 7622   EALLOW
     894                      .dwpsn  "mainfeedforward.c",251,2
     895 0000007a 1A17!         OR        @_EPwm1Regs+23,#0x0001 ; |251| 
         0000007b 0001 
     896                      .dwpsn  "mainfeedforward.c",252,2
     897 0000007c 1A17!         OR        @_EPwm1Regs+23,#0x0004 ; |252| 
         0000007d 0004 
     898                      .dwpsn  "mainfeedforward.c",253,2
     899 0000007e 761F!         MOVW      DP,#_EPwm2Regs+23
         0000007f 0000 
     900 00000080 1A17!         OR        @_EPwm2Regs+23,#0x0001 ; |253| 
         00000081 0001 
     901                      .dwpsn  "mainfeedforward.c",254,2
TMS320C2000 COFF Assembler PC v4.1.0 Mon Dec 21 14:54:55 2009

Tools Copyright (c) 1996-2005 Texas Instruments Incorporated
C:\DOCUME~1\ADMINI~1\LOCALS~1\Temp\TI9922                            PAGE   20

     902 00000082 1A17!         OR        @_EPwm2Regs+23,#0x0004 ; |254| 
         00000083 0004 
     903                      .dwpsn  "mainfeedforward.c",256,2
     904 00000084 761F!         MOVW      DP,#_EPwm1Regs+18
         00000085 0000 
     905 00000086 1A12!         OR        @_EPwm1Regs+18,#0x0100 ; |256| 
         00000087 0100 
     906                      .dwpsn  "mainfeedforward.c",257,2
     907 00000088 CC14!         AND       AL,@_EPwm1Regs+20,#0xfffc ; |257| 
         00000089 FFFC 
     908 0000008a 5001          ORB       AL,#0x01              ; |257| 
     909 0000008b 9614!         MOV       @_EPwm1Regs+20,AL     ; |257| 
     910                      .dwpsn  "mainfeedforward.c",258,2
     911 0000008c CC14!         AND       AL,@_EPwm1Regs+20,#0xfff3 ; |258| 
         0000008d FFF3 
     912 0000008e 5008          ORB       AL,#0x08              ; |258| 
     913 0000008f 9614!         MOV       @_EPwm1Regs+20,AL     ; |258| 
     914                      .dwpsn  "mainfeedforward.c",259,2
     915 00000090 1A15!         OR        @_EPwm1Regs+21,#0x0004 ; |259| 
         00000091 0004 
     916                      .dwpsn  "mainfeedforward.c",260,2
     917 00000092 761A   EDIS
     918                      .dwpsn  "mainfeedforward.c",263,2
     919 00000093 761F!         MOVW      DP,#_EPwm2Regs
         00000094 0000 
     920 00000095 1800!         AND       @_EPwm2Regs,#0xfff7   ; |263| 
         00000096 FFF7 
     921                      .dwpsn  "mainfeedforward.c",264,2
     922 00000097 761F-         MOVW      DP,#_period
         00000098 0000 
     923 00000099 9205-         MOV       AL,@_period           ; |264| 
     924 0000009a 761F!         MOVW      DP,#_EPwm2Regs+5
         0000009b 0000 
     925 0000009c 9605!         MOV       @_EPwm2Regs+5,AL      ; |264| 
     926                      .dwpsn  "mainfeedforward.c",265,2
     927 0000009d 92A8          MOV       AL,AH                 ; |265| 
     928 0000009e FFCE          LSR       AL,15                 ; |265| 
     929 0000009f 94A8          ADD       AL,AH                 ; |265| 
     930 000000a0 FFA0          ASR       AL,1                  ; |265| 
     931 000000a1 9609!         MOV       @_EPwm2Regs+9,AL      ; |265| 
     932                      .dwpsn  "mainfeedforward.c",266,2
     933 000000a2 2B0A!         MOV       @_EPwm2Regs+10,#0     ; |266| 
     934                      .dwpsn  "mainfeedforward.c",267,2
     935 000000a3 2B03!         MOV       @_EPwm2Regs+3,#0      ; |267| 
     936                      .dwpsn  "mainfeedforward.c",268,2
     937 000000a4 2B04!         MOV       @_EPwm2Regs+4,#0      ; |268| 
     938                      .dwpsn  "mainfeedforward.c",270,2
     939 000000a5 CC00!         AND       AL,@_EPwm2Regs,#0xfffc ; |270| 
         000000a6 FFFC 
     940 000000a7 5002          ORB       AL,#0x02              ; |270| 
     941 000000a8 9600!         MOV       @_EPwm2Regs,AL        ; |270| 
     942                      .dwpsn  "mainfeedforward.c",271,2
     943 000000a9 1A00!         OR        @_EPwm2Regs,#0x0004   ; |271| 
         000000aa 0004 
     944                      .dwpsn  "mainfeedforward.c",272,2
TMS320C2000 COFF Assembler PC v4.1.0 Mon Dec 21 14:54:55 2009

Tools Copyright (c) 1996-2005 Texas Instruments Incorporated
C:\DOCUME~1\ADMINI~1\LOCALS~1\Temp\TI9922                            PAGE   21

     945 000000ab 1800!         AND       @_EPwm2Regs,#0xffcf   ; |272| 
         000000ac FFCF 
     946                      .dwpsn  "mainfeedforward.c",274,2
     947 000000ad 1800!         AND       @_EPwm2Regs,#0xfc7f   ; |274| 
         000000ae FC7F 
     948                      .dwpsn  "mainfeedforward.c",275,2
     949 000000af 1800!         AND       @_EPwm2Regs,#0xe3ff   ; |275| 
         000000b0 E3FF 
     950                      .dwpsn  "mainfeedforward.c",277,2
     951 000000b1 1807!         AND       @_EPwm2Regs+7,#0xffef ; |277| 
         000000b2 FFEF 
     952                      .dwpsn  "mainfeedforward.c",278,2
     953 000000b3 CC07!         AND       AL,@_EPwm2Regs+7,#0xfffc ; |278| 
         000000b4 FFFC 
     954 000000b5 5001          ORB       AL,#0x01              ; |278| 
     955 000000b6 9607!         MOV       @_EPwm2Regs+7,AL      ; |278| 
     956                      .dwpsn  "mainfeedforward.c",279,2
     957 000000b7 CC0B!         AND       AL,@_EPwm2Regs+11,#0xffcf ; |279| 
         000000b8 FFCF 
     958 000000b9 5020          ORB       AL,#0x20              ; |279| 
     959 000000ba 960B!         MOV       @_EPwm2Regs+11,AL     ; |279| 
     960                      .dwpsn  "mainfeedforward.c",280,2
     961 000000bb CC0B!         AND       AL,@_EPwm2Regs+11,#0xff3f ; |280| 
         000000bc FF3F 
     962 000000bd 5040          ORB       AL,#0x40              ; |280| 
     963 000000be 960B!         MOV       @_EPwm2Regs+11,AL     ; |280| 
     964                      .dwpsn  "mainfeedforward.c",284,2
     965 000000bf 1A0F!         OR        @_EPwm2Regs+15,#0x0003 ; |284| 
         000000c0 0003 
     966                      .dwpsn  "mainfeedforward.c",285,2
     967 000000c1 1A0F!         OR        @_EPwm2Regs+15,#0x000c ; |285| 
         000000c2 000C 
     968                      .dwpsn  "mainfeedforward.c",286,2
     969 000000c3 9A14          MOVB      AL,#20                ; |286| 
     970 000000c4 9610!         MOV       @_EPwm2Regs+16,AL     ; |286| 
     971                      .dwpsn  "mainfeedforward.c",287,2
     972 000000c5 9611!         MOV       @_EPwm2Regs+17,AL     ; |287| 
     973                      .dwpsn  "mainfeedforward.c",291,2
     974 000000c6 7622   EALLOW
     975                      .dwpsn  "mainfeedforward.c",292,2
     976 000000c7 1A12!         OR        @_EPwm2Regs+18,#0x0100 ; |292| 
         000000c8 0100 
     977                      .dwpsn  "mainfeedforward.c",293,2
     978 000000c9 CC14!         AND       AL,@_EPwm2Regs+20,#0xfffc ; |293| 
         000000ca FFFC 
     979 000000cb 5001          ORB       AL,#0x01              ; |293| 
     980 000000cc 9614!         MOV       @_EPwm2Regs+20,AL     ; |293| 
     981                      .dwpsn  "mainfeedforward.c",294,2
     982 000000cd CC14!         AND       AL,@_EPwm2Regs+20,#0xfff3 ; |294| 
         000000ce FFF3 
     983 000000cf 5008          ORB       AL,#0x08              ; |294| 
     984 000000d0 9614!         MOV       @_EPwm2Regs+20,AL     ; |294| 
     985                      .dwpsn  "mainfeedforward.c",295,2
     986 000000d1 1A15!         OR        @_EPwm2Regs+21,#0x0004 ; |295| 
         000000d2 0004 
TMS320C2000 COFF Assembler PC v4.1.0 Mon Dec 21 14:54:55 2009

Tools Copyright (c) 1996-2005 Texas Instruments Incorporated
C:\DOCUME~1\ADMINI~1\LOCALS~1\Temp\TI9922                            PAGE   22

     987                      .dwpsn  "mainfeedforward.c",296,2
     988 000000d3 761A   EDIS
     989                      .dwpsn  "mainfeedforward.c",302,3
     990 000000d4 761F!         MOVW      DP,#_AdcRegs+24
         000000d5 0000 
     991 000000d6 1A18!         OR        @_AdcRegs+24,#0x00c0  ; |302| 
         000000d7 00C0 
     992                      .dwpsn  "mainfeedforward.c",304,7
     993 000000d8 2B41          MOV       *-SP[1],#0            ; |304| 
     994                      .dwpsn  "mainfeedforward.c",304,11
     995 000000d9 1B41          CMP       *-SP[1],#500          ; |304| 
         000000da 01F4 
     996 000000db 630E          B         L4,GEQ                ; |304| 
     997                      ; branchcc occurs ; |304| 
     998 000000dc       L1:    
     999 000000dc       DW$L$_main$2$B:
    1000                      .dwpsn  "mainfeedforward.c",306,8
    1001 000000dc 2B42          MOV       *-SP[2],#0            ; |306| 
    1002                      .dwpsn  "mainfeedforward.c",306,12
    1003 000000dd 1B42          CMP       *-SP[2],#1000         ; |306| 
         000000de 03E8 
    1004 000000df 6306          B         L3,GEQ                ; |306| 
    1005                      ; branchcc occurs ; |306| 
    1006 000000e0       DW$L$_main$2$E:
    1007 000000e0       L2:    
    1008 000000e0       DW$L$_main$3$B:
    1009                      .dwpsn  "mainfeedforward.c",308,5
    1010 000000e0 7700   nop
    1011                      .dwpsn  "mainfeedforward.c",306,19
    1012 000000e1 0A42          INC       *-SP[2]               ; |306| 
    1013                      .dwpsn  "mainfeedforward.c",306,12
    1014 000000e2 1B42          CMP       *-SP[2],#1000         ; |306| 
         000000e3 03E8 
    1015 000000e4 64FC          B         L2,LT                 ; |306| 
    1016                      ; branchcc occurs ; |306| 
    1017 000000e5       DW$L$_main$3$E:
    1018 000000e5       L3:    
    1019 000000e5       DW$L$_main$4$B:
    1020                      .dwpsn  "mainfeedforward.c",304,17
    1021 000000e5 0A41          INC       *-SP[1]               ; |304| 
    1022                      .dwpsn  "mainfeedforward.c",304,11
    1023 000000e6 1B41          CMP       *-SP[1],#500          ; |304| 
         000000e7 01F4 
    1024 000000e8 64F4          B         L1,LT                 ; |304| 
    1025                      ; branchcc occurs ; |304| 
    1026 000000e9       DW$L$_main$4$E:
    1027 000000e9       L4:    
    1028                      .dwpsn  "mainfeedforward.c",311,3
    1029 000000e9 761F!         MOVW      DP,#_AdcRegs+24
         000000ea 0000 
    1030 000000eb 1A18!         OR        @_AdcRegs+24,#0x0020  ; |311| 
         000000ec 0020 
    1031                      .dwpsn  "mainfeedforward.c",313,7
    1032 000000ed 2B41          MOV       *-SP[1],#0            ; |313| 
    1033                      .dwpsn  "mainfeedforward.c",313,11
TMS320C2000 COFF Assembler PC v4.1.0 Mon Dec 21 14:54:55 2009

Tools Copyright (c) 1996-2005 Texas Instruments Incorporated
C:\DOCUME~1\ADMINI~1\LOCALS~1\Temp\TI9922                            PAGE   23

    1034 000000ee 1B41          CMP       *-SP[1],#2000         ; |313| 
         000000ef 07D0 
    1035 000000f0 6306          B         L6,GEQ                ; |313| 
    1036                      ; branchcc occurs ; |313| 
    1037 000000f1       L5:    
    1038 000000f1       DW$L$_main$6$B:
    1039                      .dwpsn  "mainfeedforward.c",315,4
    1040 000000f1 7700   nop
    1041                      .dwpsn  "mainfeedforward.c",313,18
    1042 000000f2 0A41          INC       *-SP[1]               ; |313| 
    1043                      .dwpsn  "mainfeedforward.c",313,11
    1044 000000f3 1B41          CMP       *-SP[1],#2000         ; |313| 
         000000f4 07D0 
    1045 000000f5 64FC          B         L5,LT                 ; |313| 
    1046                      ; branchcc occurs ; |313| 
    1047 000000f6       DW$L$_main$6$E:
    1048 000000f6       L6:    
    1049                      .dwpsn  "mainfeedforward.c",318,3
    1050 000000f6 761F!         MOVW      DP,#_AdcRegs+2
         000000f7 0000 
    1051 000000f8 2802!         MOV       @_AdcRegs+2,#4        ; |318| 
         000000f9 0004 
    1052                      .dwpsn  "mainfeedforward.c",319,3
    1053 000000fa 1803!         AND       @_AdcRegs+3,#0xfff0   ; |319| 
         000000fb FFF0 
    1054                      .dwpsn  "mainfeedforward.c",320,3
    1055 000000fc CC03!         AND       AL,@_AdcRegs+3,#0xff0f ; |320| 
         000000fd FF0F 
    1056 000000fe 5010          ORB       AL,#0x10              ; |320| 
    1057 000000ff 9603!         MOV       @_AdcRegs+3,AL        ; |320| 
    1058                      .dwpsn  "mainfeedforward.c",321,3
    1059 00000100 CC03!         AND       AL,@_AdcRegs+3,#0xf0ff ; |321| 
         00000101 F0FF 
    1060 00000102 1AA9          OR        AL,#0x0200            ; |321| 
         00000103 0200 
    1061 00000104 9603!         MOV       @_AdcRegs+3,AL        ; |321| 
    1062                      .dwpsn  "mainfeedforward.c",322,3
    1063 00000105 CC03!         AND       AL,@_AdcRegs+3,#0x0fff ; |322| 
         00000106 0FFF 
    1064 00000107 1AA9          OR        AL,#0xc000            ; |322| 
         00000108 C000 
    1065 00000109 9603!         MOV       @_AdcRegs+3,AL        ; |322| 
    1066                      .dwpsn  "mainfeedforward.c",324,6
    1067 0000010a CC04!         AND       AL,@_AdcRegs+4,#0xfff0 ; |324| 
         0000010b FFF0 
    1068 0000010c 5003          ORB       AL,#0x03              ; |324| 
    1069 0000010d 9604!         MOV       @_AdcRegs+4,AL        ; |324| 
    1070                      .dwpsn  "mainfeedforward.c",327,3
    1071 0000010e 1800!         AND       @_AdcRegs,#0xff7f     ; |327| 
         0000010f FF7F 
    1072                      .dwpsn  "mainfeedforward.c",328,3
    1073 00000110 1A00!         OR        @_AdcRegs,#0x0010     ; |328| 
         00000111 0010 
    1074                      .dwpsn  "mainfeedforward.c",329,3
    1075 00000112 CC00!         AND       AL,@_AdcRegs,#0xf0ff  ; |329| 
TMS320C2000 COFF Assembler PC v4.1.0 Mon Dec 21 14:54:55 2009

Tools Copyright (c) 1996-2005 Texas Instruments Incorporated
C:\DOCUME~1\ADMINI~1\LOCALS~1\Temp\TI9922                            PAGE   24

         00000113 F0FF 
    1076 00000114 1AA9          OR        AL,#0x0500            ; |329| 
         00000115 0500 
    1077 00000116 9600!         MOV       @_AdcRegs,AL          ; |329| 
    1078                      .dwpsn  "mainfeedforward.c",331,3
    1079 00000117 1A01!         OR        @_AdcRegs+1,#0x0100   ; |331| 
         00000118 0100 
    1080                      .dwpsn  "mainfeedforward.c",332,3
    1081 00000119 1A01!         OR        @_AdcRegs+1,#0x0800   ; |332| 
         0000011a 0800 
    1082                      .dwpsn  "mainfeedforward.c",333,3
    1083 0000011b CC18!         AND       AL,@_AdcRegs+24,#0xffe1 ; |333| 
         0000011c FFE1 
    1084 0000011d 5002          ORB       AL,#0x02              ; |333| 
    1085 0000011e 9618!         MOV       @_AdcRegs+24,AL       ; |333| 
    1086                      .dwpsn  "mainfeedforward.c",334,3
    1087 0000011f 1A01!         OR        @_AdcRegs+1,#0x2000   ; |334| 
         00000120 2000 
    1088                      .dwpsn  "mainfeedforward.c",338,3
    1089 00000121 1800!         AND       @_AdcRegs,#0xffbf     ; |338| 
         00000122 FFBF 
    1090                      .dwpsn  "mainfeedforward.c",339,3
    1091 00000123 1A01!         OR        @_AdcRegs+1,#0x0100   ; |339| 
         00000124 0100 
    1092                      .dwpsn  "mainfeedforward.c",342,3
    1093 00000125 761F!         MOVW      DP,#_EPwm6Regs
         00000126 0000 
    1094 00000127 1800!         AND       @_EPwm6Regs,#0xfff7   ; |342| 
         00000128 FFF7 
    1095                      .dwpsn  "mainfeedforward.c",343,3
    1096 00000129 761F-         MOVW      DP,#_period
         0000012a 0000 
    1097 0000012b 9205-         MOV       AL,@_period           ; |343| 
    1098 0000012c 761F!         MOVW      DP,#_EPwm6Regs+5
         0000012d 0000 
    1099 0000012e 9605!         MOV       @_EPwm6Regs+5,AL      ; |343| 
    1100                      .dwpsn  "mainfeedforward.c",344,3
    1101 0000012f 0200          MOVB      ACC,#0
    1102 00000130 1E02!         MOVL      @_EPwm6Regs+2,ACC     ; |344| 
    1103                      .dwpsn  "mainfeedforward.c",345,3
    1104 00000131 2B04!         MOV       @_EPwm6Regs+4,#0      ; |345| 
    1105                      .dwpsn  "mainfeedforward.c",347,3
    1106 00000132 CC00!         AND       AL,@_EPwm6Regs,#0xfffc ; |347| 
         00000133 FFFC 
    1107 00000134 5002          ORB       AL,#0x02              ; |347| 
    1108 00000135 9600!         MOV       @_EPwm6Regs,AL        ; |347| 
    1109                      .dwpsn  "mainfeedforward.c",348,3
    1110 00000136 1800!         AND       @_EPwm6Regs,#0xfffb   ; |348| 
         00000137 FFFB 
    1111                      .dwpsn  "mainfeedforward.c",349,3
    1112 00000138 1A00!         OR        @_EPwm6Regs,#0x0030   ; |349| 
         00000139 0030 
    1113                      .dwpsn  "mainfeedforward.c",350,3
    1114 0000013a 1800!         AND       @_EPwm6Regs,#0xfc7f   ; |350| 
         0000013b FC7F 
TMS320C2000 COFF Assembler PC v4.1.0 Mon Dec 21 14:54:55 2009

Tools Copyright (c) 1996-2005 Texas Instruments Incorporated
C:\DOCUME~1\ADMINI~1\LOCALS~1\Temp\TI9922                            PAGE   25

    1115                      .dwpsn  "mainfeedforward.c",351,3
    1116 0000013c 1800!         AND       @_EPwm6Regs,#0xe3ff   ; |351| 
         0000013d E3FF 
    1117                      .dwpsn  "mainfeedforward.c",354,3
    1118 0000013e 1A19!         OR        @_EPwm6Regs+25,#0x0800 ; |354| 
         0000013f 0800 
    1119                      .dwpsn  "mainfeedforward.c",355,3
    1120 00000140 CC19!         AND       AL,@_EPwm6Regs+25,#0xf8ff ; |355| 
         00000141 F8FF 
    1121 00000142 1AA9          OR        AL,#0x0400            ; |355| 
         00000143 0400 
    1122 00000144 9619!         MOV       @_EPwm6Regs+25,AL     ; |355| 
    1123                      .dwpsn  "mainfeedforward.c",357,3
    1124 00000145 2809!         MOV       @_EPwm6Regs+9,#1200   ; |357| 
         00000146 04B0 
    1125                      .dwpsn  "mainfeedforward.c",358,9
    1126 00000147 CC1A!         AND       AL,@_EPwm6Regs+26,#0xfcff ; |358| 
         00000148 FCFF 
    1127 00000149 1AA9          OR        AL,#0x0100            ; |358| 
         0000014a 0100 
    1128 0000014b 961A!         MOV       @_EPwm6Regs+26,AL     ; |358| 
    1129                      .dwpsn  "mainfeedforward.c",377,2
    1130 0000014c 7623          OR        IER,#0x0006           ; |377| 
         0000014d 0006 
    1131                      .dwpsn  "mainfeedforward.c",379,2
    1132 0000014e 7622   EALLOW
    1133                      .dwpsn  "mainfeedforward.c",380,2
    1134 0000014f 8F00'         MOVL      XAR4,#_control_run    ; |380| 
         00000150 01E3 
    1135 00000151 761F!         MOVW      DP,#_PieVectTable+96
         00000152 0001 
    1136 00000153 A820!         MOVL      @_PieVectTable+96,XAR4 ; |380| 
    1137                      .dwpsn  "mainfeedforward.c",381,2
    1138 00000154 8F00'         MOVL      XAR4,#_overload       ; |381| 
         00000155 0182 
    1139 00000156 A810!         MOVL      @_PieVectTable+80,XAR4 ; |381| 
    1140                      .dwpsn  "mainfeedforward.c",382,2
    1141 00000157 761A   EDIS
    1142                      .dwpsn  "mainfeedforward.c",384,5
    1143 00000158 761F!         MOVW      DP,#_PieCtrlRegs+6
         00000159 0000 
    1144 0000015a 1A06!         OR        @_PieCtrlRegs+6,#0x0001 ; |384| 
         0000015b 0001 
    1145                      .dwpsn  "mainfeedforward.c",385,2
    1146 0000015c 1A04!         OR        @_PieCtrlRegs+4,#0x0001 ; |385| 
         0000015d 0001 
    1147                      .dwpsn  "mainfeedforward.c",388,2
    1148 0000015e 761F!         MOVW      DP,#_EPwm1Regs+25
         0000015f 0000 
    1149 00000160 CC19!         AND       AL,@_EPwm1Regs+25,#0xfff8 ; |388| 
         00000161 FFF8 
    1150 00000162 5006          ORB       AL,#0x06              ; |388| 
    1151 00000163 9619!         MOV       @_EPwm1Regs+25,AL     ; |388| 
    1152                      .dwpsn  "mainfeedforward.c",389,2
    1153 00000164 1A19!         OR        @_EPwm1Regs+25,#0x0008 ; |389| 
TMS320C2000 COFF Assembler PC v4.1.0 Mon Dec 21 14:54:55 2009

Tools Copyright (c) 1996-2005 Texas Instruments Incorporated
C:\DOCUME~1\ADMINI~1\LOCALS~1\Temp\TI9922                            PAGE   26

         00000165 0008 
    1154                      .dwpsn  "mainfeedforward.c",390,2
    1155 00000166 CC1A!         AND       AL,@_EPwm1Regs+26,#0xfffc ; |390| 
         00000167 FFFC 
    1156 00000168 5001          ORB       AL,#0x01              ; |390| 
    1157 00000169 961A!         MOV       @_EPwm1Regs+26,AL     ; |390| 
    1158                      .dwpsn  "mainfeedforward.c",399,2
    1159 0000016a 7622   EALLOW
    1160                      .dwpsn  "mainfeedforward.c",400,2
    1161 0000016b 761F!         MOVW      DP,#_GpioCtrlRegs+6
         0000016c 0000 
    1162 0000016d CC06!         AND       AL,@_GpioCtrlRegs+6,#0xfffc ; |400| 
         0000016e FFFC 
    1163 0000016f 5001          ORB       AL,#0x01              ; |400| 
    1164 00000170 9606!         MOV       @_GpioCtrlRegs+6,AL   ; |400| 
    1165                      .dwpsn  "mainfeedforward.c",401,2
    1166 00000171 CC06!         AND       AL,@_GpioCtrlRegs+6,#0xfff3 ; |401| 
         00000172 FFF3 
    1167 00000173 5004          ORB       AL,#0x04              ; |401| 
    1168 00000174 9606!         MOV       @_GpioCtrlRegs+6,AL   ; |401| 
    1169                      .dwpsn  "mainfeedforward.c",402,2
    1170 00000175 CC06!         AND       AL,@_GpioCtrlRegs+6,#0xffcf ; |402| 
         00000176 FFCF 
    1171 00000177 5010          ORB       AL,#0x10              ; |402| 
    1172 00000178 9606!         MOV       @_GpioCtrlRegs+6,AL   ; |402| 
    1173                      .dwpsn  "mainfeedforward.c",403,2
    1174 00000179 CC06!         AND       AL,@_GpioCtrlRegs+6,#0xff3f ; |403| 
         0000017a FF3F 
    1175 0000017b 5040          ORB       AL,#0x40              ; |403| 
    1176 0000017c 9606!         MOV       @_GpioCtrlRegs+6,AL   ; |403| 
    1177                      .dwpsn  "mainfeedforward.c",404,2
    1178 0000017d 761A   EDIS
    1179                      .dwpsn  "mainfeedforward.c",410,2
    1180 0000017e 2910   clrc INTM
    1181                      .dwpsn  "mainfeedforward.c",411,2
    1182 0000017f 2920   clrc DBGM
    1183 00000180       L7:    
    1184 00000180       DW$L$_main$8$B:
    1185                      .dwpsn  "mainfeedforward.c",419,4
    1186 00000180 7700    NOP
    1187                      .dwpsn  "mainfeedforward.c",420,2
    1188 00000181 6FFF          B         L7,UNC                ; |420| 
    1189                      ; branch occurs ; |420| 
    1190 00000182       DW$L$_main$8$E:
    1191                      .dwcfa  0x1d, -2
    1192              
    1193              DW$91   .dwtag  DW_TAG_loop
    1194                      .dwattr DW$91, DW_AT_name("C:\DOCUME~1\ADMINI~1\LOCALS~1\Temp\TI9922:L7:1:1261378494")
    1195                      .dwattr DW$91, DW_AT_begin_file("mainfeedforward.c")
    1196                      .dwattr DW$91, DW_AT_begin_line(0x1a1)
    1197                      .dwattr DW$91, DW_AT_end_line(0x1a4)
    1198              DW$92   .dwtag  DW_TAG_loop_range
    1199                      .dwattr DW$92, DW_AT_low_pc(DW$L$_main$8$B)
    1200                      .dwattr DW$92, DW_AT_high_pc(DW$L$_main$8$E)
    1201                      .dwendtag DW$91
TMS320C2000 COFF Assembler PC v4.1.0 Mon Dec 21 14:54:55 2009

Tools Copyright (c) 1996-2005 Texas Instruments Incorporated
C:\DOCUME~1\ADMINI~1\LOCALS~1\Temp\TI9922                            PAGE   27

    1202              
    1203              
    1204              DW$93   .dwtag  DW_TAG_loop
    1205                      .dwattr DW$93, DW_AT_name("C:\DOCUME~1\ADMINI~1\LOCALS~1\Temp\TI9922:L5:1:1261378494")
    1206                      .dwattr DW$93, DW_AT_begin_file("mainfeedforward.c")
    1207                      .dwattr DW$93, DW_AT_begin_line(0x139)
    1208                      .dwattr DW$93, DW_AT_end_line(0x13c)
    1209              DW$94   .dwtag  DW_TAG_loop_range
    1210                      .dwattr DW$94, DW_AT_low_pc(DW$L$_main$6$B)
    1211                      .dwattr DW$94, DW_AT_high_pc(DW$L$_main$6$E)
    1212                      .dwendtag DW$93
    1213              
    1214              
    1215              DW$95   .dwtag  DW_TAG_loop
    1216                      .dwattr DW$95, DW_AT_name("C:\DOCUME~1\ADMINI~1\LOCALS~1\Temp\TI9922:L1:1:1261378494")
    1217                      .dwattr DW$95, DW_AT_begin_file("mainfeedforward.c")
    1218                      .dwattr DW$95, DW_AT_begin_line(0x130)
    1219                      .dwattr DW$95, DW_AT_end_line(0x136)
    1220              DW$96   .dwtag  DW_TAG_loop_range
    1221                      .dwattr DW$96, DW_AT_low_pc(DW$L$_main$2$B)
    1222                      .dwattr DW$96, DW_AT_high_pc(DW$L$_main$2$E)
    1223              DW$97   .dwtag  DW_TAG_loop_range
    1224                      .dwattr DW$97, DW_AT_low_pc(DW$L$_main$4$B)
    1225                      .dwattr DW$97, DW_AT_high_pc(DW$L$_main$4$E)
    1226              
    1227              DW$98   .dwtag  DW_TAG_loop
    1228                      .dwattr DW$98, DW_AT_name("C:\DOCUME~1\ADMINI~1\LOCALS~1\Temp\TI9922:L2:2:1261378494")
    1229                      .dwattr DW$98, DW_AT_begin_file("mainfeedforward.c")
    1230                      .dwattr DW$98, DW_AT_begin_line(0x132)
    1231                      .dwattr DW$98, DW_AT_end_line(0x135)
    1232              DW$99   .dwtag  DW_TAG_loop_range
    1233                      .dwattr DW$99, DW_AT_low_pc(DW$L$_main$3$B)
    1234                      .dwattr DW$99, DW_AT_high_pc(DW$L$_main$3$E)
    1235                      .dwendtag DW$98
    1236              
    1237                      .dwendtag DW$95
    1238              
    1239                      .dwattr DW$88, DW_AT_end_file("mainfeedforward.c")
    1240                      .dwattr DW$88, DW_AT_end_line(0x1a6)
    1241                      .dwattr DW$88, DW_AT_end_column(0x01)
    1242                      .dwendentry
    1243                      .dwendtag DW$88
    1244              
    1245 00000182               .sect   ".text"
    1246                      .global _overload
    1247              
    1248              DW$100  .dwtag  DW_TAG_subprogram, DW_AT_name("overload"), DW_AT_symbol_name("_overload")
    1249                      .dwattr DW$100, DW_AT_low_pc(_overload)
    1250                      .dwattr DW$100, DW_AT_high_pc(0x00)
    1251                      .dwattr DW$100, DW_AT_begin_file("mainfeedforward.c")
    1252                      .dwattr DW$100, DW_AT_begin_line(0x1ac)
    1253                      .dwattr DW$100, DW_AT_begin_column(0x10)
    1254                      .dwpsn  "mainfeedforward.c",429,1
    1255              
    1256                      .dwfde DW$CIE
TMS320C2000 COFF Assembler PC v4.1.0 Mon Dec 21 14:54:55 2009

Tools Copyright (c) 1996-2005 Texas Instruments Incorporated
C:\DOCUME~1\ADMINI~1\LOCALS~1\Temp\TI9922                            PAGE   28

    1257              
    1258              ;***************************************************************
    1259              ;* FNAME: _overload                     FR SIZE:   2           *
    1260              ;*                                                             *
    1261              ;* FUNCTION ENVIRONMENT                                        *
    1262              ;*                                                             *
    1263              ;* FUNCTION PROPERTIES                                         *
    1264              ;*                            0 Parameter,  1 Auto,  0 SOE     *
    1265              ;***************************************************************
    1266              
    1267 00000182       _overload:
    1268 00000182 761B          ASP
    1269                      .dwcfa  0x1d, -2
    1270                      .dwcfa  0x1c, 26, 0
    1271                      .dwcfa  0x09, 40, 26
    1272 00000183 FE02          ADDB      SP,#2
    1273                      .dwcfa  0x1d, -4
    1274 00000184 2942          CLRC      PAGE0,OVM
    1275 00000185 5616          CLRC      AMODE
    1276              DW$101  .dwtag  DW_TAG_variable, DW_AT_name("ll"), DW_AT_symbol_name("_ll")
    1277                      .dwattr DW$101, DW_AT_type(*DW$T$10)
    1278                      .dwattr DW$101, DW_AT_location[DW_OP_breg20 -1]
    1279                      .dwpsn  "mainfeedforward.c",431,2
    1280 00000186 6F0A          B         L10,UNC               ; |431| 
    1281                      ; branch occurs ; |431| 
    1282 00000187       L8:    
    1283 00000187       DW$L$_overload$2$B:
    1284                      .dwpsn  "mainfeedforward.c",433,7
    1285 00000187 2B41          MOV       *-SP[1],#0            ; |433| 
    1286                      .dwpsn  "mainfeedforward.c",433,12
    1287 00000188 9241          MOV       AL,*-SP[1]            ; |433| 
    1288 00000189 5205          CMPB      AL,#5                 ; |433| 
    1289 0000018a 6306          B         L10,GEQ               ; |433| 
    1290                      ; branchcc occurs ; |433| 
    1291 0000018b       DW$L$_overload$2$E:
    1292 0000018b       L9:    
    1293 0000018b       DW$L$_overload$3$B:
    1294                      .dwpsn  "mainfeedforward.c",435,4
    1295 0000018b 7700   nop
    1296                      .dwpsn  "mainfeedforward.c",433,17
    1297 0000018c 0A41          INC       *-SP[1]               ; |433| 
    1298                      .dwpsn  "mainfeedforward.c",433,12
    1299 0000018d 9241          MOV       AL,*-SP[1]            ; |433| 
    1300 0000018e 5205          CMPB      AL,#5                 ; |433| 
    1301 0000018f 64FC          B         L9,LT                 ; |433| 
    1302                      ; branchcc occurs ; |433| 
    1303 00000190       DW$L$_overload$3$E:
    1304 00000190       L10:    
    1305 00000190       DW$L$_overload$4$B:
    1306                      .dwpsn  "mainfeedforward.c",431,8
    1307 00000190 761F!         MOVW      DP,#_GpioDataRegs
         00000191 0000 
    1308 00000192 CC00!         AND       AL,@_GpioDataRegs,#0x1000 ; |431| 
         00000193 1000 
    1309 00000194 FFCB          LSR       AL,12                 ; |431| 
TMS320C2000 COFF Assembler PC v4.1.0 Mon Dec 21 14:54:55 2009

Tools Copyright (c) 1996-2005 Texas Instruments Incorporated
C:\DOCUME~1\ADMINI~1\LOCALS~1\Temp\TI9922                            PAGE   29

    1310 00000195 ECF2          BF        L8,EQ                 ; |431| 
    1311                      ; branchcc occurs ; |431| 
    1312 00000196       DW$L$_overload$4$E:
    1313                      .dwpsn  "mainfeedforward.c",439,6
    1314 00000196 2B41          MOV       *-SP[1],#0            ; |439| 
    1315                      .dwpsn  "mainfeedforward.c",439,11
    1316 00000197 9241          MOV       AL,*-SP[1]            ; |439| 
    1317 00000198 5202          CMPB      AL,#2                 ; |439| 
    1318 00000199 6310          B         L14,GEQ               ; |439| 
    1319                      ; branchcc occurs ; |439| 
    1320 0000019a       L11:    
    1321 0000019a       DW$L$_overload$6$B:
    1322                      .dwpsn  "mainfeedforward.c",441,3
    1323 0000019a 7700   nop
    1324                      .dwpsn  "mainfeedforward.c",439,16
    1325 0000019b 0A41          INC       *-SP[1]               ; |439| 
    1326                      .dwpsn  "mainfeedforward.c",439,11
    1327 0000019c 9241          MOV       AL,*-SP[1]            ; |439| 
    1328 0000019d 5202          CMPB      AL,#2                 ; |439| 
    1329 0000019e 64FC          B         L11,LT                ; |439| 
    1330                      ; branchcc occurs ; |439| 
    1331 0000019f       DW$L$_overload$6$E:
    1332                      .dwpsn  "mainfeedforward.c",444,2
    1333 0000019f 6F0A          B         L14,UNC               ; |444| 
    1334                      ; branch occurs ; |444| 
    1335 000001a0       L12:    
    1336 000001a0       DW$L$_overload$8$B:
    1337                      .dwpsn  "mainfeedforward.c",446,7
    1338 000001a0 2B41          MOV       *-SP[1],#0            ; |446| 
    1339                      .dwpsn  "mainfeedforward.c",446,12
    1340 000001a1 9241          MOV       AL,*-SP[1]            ; |446| 
    1341 000001a2 5205          CMPB      AL,#5                 ; |446| 
    1342 000001a3 6306          B         L14,GEQ               ; |446| 
    1343                      ; branchcc occurs ; |446| 
    1344 000001a4       DW$L$_overload$8$E:
    1345 000001a4       L13:    
    1346 000001a4       DW$L$_overload$9$B:
    1347                      .dwpsn  "mainfeedforward.c",448,4
    1348 000001a4 7700   nop
    1349                      .dwpsn  "mainfeedforward.c",446,17
    1350 000001a5 0A41          INC       *-SP[1]               ; |446| 
    1351                      .dwpsn  "mainfeedforward.c",446,12
    1352 000001a6 9241          MOV       AL,*-SP[1]            ; |446| 
    1353 000001a7 5205          CMPB      AL,#5                 ; |446| 
    1354 000001a8 64FC          B         L13,LT                ; |446| 
    1355                      ; branchcc occurs ; |446| 
    1356 000001a9       DW$L$_overload$9$E:
    1357 000001a9       L14:    
    1358 000001a9       DW$L$_overload$10$B:
    1359                      .dwpsn  "mainfeedforward.c",444,8
    1360 000001a9 761F!         MOVW      DP,#_GpioDataRegs
         000001aa 0000 
    1361 000001ab CC00!         AND       AL,@_GpioDataRegs,#0x1000 ; |444| 
         000001ac 1000 
    1362 000001ad FFCB          LSR       AL,12                 ; |444| 
TMS320C2000 COFF Assembler PC v4.1.0 Mon Dec 21 14:54:55 2009

Tools Copyright (c) 1996-2005 Texas Instruments Incorporated
C:\DOCUME~1\ADMINI~1\LOCALS~1\Temp\TI9922                            PAGE   30

    1363 000001ae ECF2          BF        L12,EQ                ; |444| 
    1364                      ; branchcc occurs ; |444| 
    1365 000001af       DW$L$_overload$10$E:
    1366                      .dwpsn  "mainfeedforward.c",452,2
    1367 000001af 761F-         MOVW      DP,#_OLFLAG
         000001b0 0000 
    1368 000001b1 0A06-         INC       @_OLFLAG              ; |452| 
    1369                      .dwpsn  "mainfeedforward.c",454,2
    1370 000001b2 9206-         MOV       AL,@_OLFLAG           ; |454| 
    1371 000001b3 5204          CMPB      AL,#4                 ; |454| 
    1372 000001b4 6414          B         L15,LT                ; |454| 
    1373                      ; branchcc occurs ; |454| 
    1374                      .dwpsn  "mainfeedforward.c",456,3
    1375 000001b5 7622   EALLOW
    1376                      .dwpsn  "mainfeedforward.c",457,3
    1377 000001b6 761F!         MOVW      DP,#_EPwm1Regs+24
         000001b7 0000 
    1378 000001b8 1A18!         OR        @_EPwm1Regs+24,#0x0004 ; |457| 
         000001b9 0004 
    1379                      .dwpsn  "mainfeedforward.c",458,3
    1380 000001ba 761F!         MOVW      DP,#_EPwm2Regs+24
         000001bb 0000 
    1381 000001bc 1A18!         OR        @_EPwm2Regs+24,#0x0004 ; |458| 
         000001bd 0004 
    1382                      .dwpsn  "mainfeedforward.c",459,3
    1383 000001be 761A   EDIS
    1384                      .dwpsn  "mainfeedforward.c",460,3
    1385 000001bf 761F-         MOVW      DP,#_OLFLAG
         000001c0 0000 
    1386 000001c1 2806-         MOV       @_OLFLAG,#4           ; |460| 
         000001c2 0004 
    1387                      .dwpsn  "mainfeedforward.c",461,3
    1388 000001c3 761F!         MOVW      DP,#_GpioDataRegs+5
         000001c4 0000 
    1389 000001c5 1A05!         OR        @_GpioDataRegs+5,#0x0020 ; |461| 
         000001c6 0020 
    1390                      .dwpsn  "mainfeedforward.c",462,2
    1391 000001c7 6F19          B         L16,UNC               ; |462| 
    1392                      ; branch occurs ; |462| 
    1393 000001c8       L15:    
    1394                      .dwpsn  "mainfeedforward.c",468,3
    1395 000001c8 7622   EALLOW
    1396                      .dwpsn  "mainfeedforward.c",469,3
    1397 000001c9 761F!         MOVW      DP,#_EPwm1Regs+23
         000001ca 0000 
    1398 000001cb 1A17!         OR        @_EPwm1Regs+23,#0x0004 ; |469| 
         000001cc 0004 
    1399                      .dwpsn  "mainfeedforward.c",470,3
    1400 000001cd 761F!         MOVW      DP,#_EPwm2Regs+23
         000001ce 0000 
    1401 000001cf 1A17!         OR        @_EPwm2Regs+23,#0x0004 ; |470| 
         000001d0 0004 
    1402                      .dwpsn  "mainfeedforward.c",471,3
    1403 000001d1 761F!         MOVW      DP,#_EPwm1Regs+23
         000001d2 0000 
TMS320C2000 COFF Assembler PC v4.1.0 Mon Dec 21 14:54:55 2009

Tools Copyright (c) 1996-2005 Texas Instruments Incorporated
C:\DOCUME~1\ADMINI~1\LOCALS~1\Temp\TI9922                            PAGE   31

    1404 000001d3 1A17!         OR        @_EPwm1Regs+23,#0x0001 ; |471| 
         000001d4 0001 
    1405                      .dwpsn  "mainfeedforward.c",472,3
    1406 000001d5 761F!         MOVW      DP,#_EPwm2Regs+23
         000001d6 0000 
    1407 000001d7 1A17!         OR        @_EPwm2Regs+23,#0x0001 ; |472| 
         000001d8 0001 
    1408                      .dwpsn  "mainfeedforward.c",473,3
    1409 000001d9 761A   EDIS
    1410                      .dwpsn  "mainfeedforward.c",474,3
    1411 000001da 761F!         MOVW      DP,#_PieCtrlRegs+1
         000001db 0000 
    1412 000001dc 2801!         MOV       @_PieCtrlRegs+1,#1    ; |474| 
         000001dd 0001 
    1413                      .dwpsn  "mainfeedforward.c",475,3
    1414 000001de 2801!         MOV       @_PieCtrlRegs+1,#2    ; |475| 
         000001df 0002 
    1415                      .dwpsn  "mainfeedforward.c",476,2
    1416 000001e0       L16:    
    1417                      .dwpsn  "mainfeedforward.c",478,1
    1418 000001e0 FE82          SUBB      SP,#2
    1419                      .dwcfa  0x1d, -2
    1420 000001e1 7617          NASP
    1421 000001e2 7602          IRET
    1422                      ; return occurs
    1423              
    1424              DW$102  .dwtag  DW_TAG_loop
    1425                      .dwattr DW$102, DW_AT_name("C:\DOCUME~1\ADMINI~1\LOCALS~1\Temp\TI9922:L14:1:1261378494")
    1426                      .dwattr DW$102, DW_AT_begin_file("mainfeedforward.c")
    1427                      .dwattr DW$102, DW_AT_begin_line(0x1bc)
    1428                      .dwattr DW$102, DW_AT_end_line(0x1be)
    1429              DW$103  .dwtag  DW_TAG_loop_range
    1430                      .dwattr DW$103, DW_AT_low_pc(DW$L$_overload$10$B)
    1431                      .dwattr DW$103, DW_AT_high_pc(DW$L$_overload$10$E)
    1432              DW$104  .dwtag  DW_TAG_loop_range
    1433                      .dwattr DW$104, DW_AT_low_pc(DW$L$_overload$8$B)
    1434                      .dwattr DW$104, DW_AT_high_pc(DW$L$_overload$8$E)
    1435              
    1436              DW$105  .dwtag  DW_TAG_loop
    1437                      .dwattr DW$105, DW_AT_name("C:\DOCUME~1\ADMINI~1\LOCALS~1\Temp\TI9922:L13:2:1261378494")
    1438                      .dwattr DW$105, DW_AT_begin_file("mainfeedforward.c")
    1439                      .dwattr DW$105, DW_AT_begin_line(0x1be)
    1440                      .dwattr DW$105, DW_AT_end_line(0x1c1)
    1441              DW$106  .dwtag  DW_TAG_loop_range
    1442                      .dwattr DW$106, DW_AT_low_pc(DW$L$_overload$9$B)
    1443                      .dwattr DW$106, DW_AT_high_pc(DW$L$_overload$9$E)
    1444                      .dwendtag DW$105
    1445              
    1446                      .dwendtag DW$102
    1447              
    1448              
    1449              DW$107  .dwtag  DW_TAG_loop
    1450                      .dwattr DW$107, DW_AT_name("C:\DOCUME~1\ADMINI~1\LOCALS~1\Temp\TI9922:L11:1:1261378494")
    1451                      .dwattr DW$107, DW_AT_begin_file("mainfeedforward.c")
    1452                      .dwattr DW$107, DW_AT_begin_line(0x1b7)
TMS320C2000 COFF Assembler PC v4.1.0 Mon Dec 21 14:54:55 2009

Tools Copyright (c) 1996-2005 Texas Instruments Incorporated
C:\DOCUME~1\ADMINI~1\LOCALS~1\Temp\TI9922                            PAGE   32

    1453                      .dwattr DW$107, DW_AT_end_line(0x1ba)
    1454              DW$108  .dwtag  DW_TAG_loop_range
    1455                      .dwattr DW$108, DW_AT_low_pc(DW$L$_overload$6$B)
    1456                      .dwattr DW$108, DW_AT_high_pc(DW$L$_overload$6$E)
    1457                      .dwendtag DW$107
    1458              
    1459              
    1460              DW$109  .dwtag  DW_TAG_loop
    1461                      .dwattr DW$109, DW_AT_name("C:\DOCUME~1\ADMINI~1\LOCALS~1\Temp\TI9922:L10:1:1261378494")
    1462                      .dwattr DW$109, DW_AT_begin_file("mainfeedforward.c")
    1463                      .dwattr DW$109, DW_AT_begin_line(0x1af)
    1464                      .dwattr DW$109, DW_AT_end_line(0x1b1)
    1465              DW$110  .dwtag  DW_TAG_loop_range
    1466                      .dwattr DW$110, DW_AT_low_pc(DW$L$_overload$4$B)
    1467                      .dwattr DW$110, DW_AT_high_pc(DW$L$_overload$4$E)
    1468              DW$111  .dwtag  DW_TAG_loop_range
    1469                      .dwattr DW$111, DW_AT_low_pc(DW$L$_overload$2$B)
    1470                      .dwattr DW$111, DW_AT_high_pc(DW$L$_overload$2$E)
    1471              
    1472              DW$112  .dwtag  DW_TAG_loop
    1473                      .dwattr DW$112, DW_AT_name("C:\DOCUME~1\ADMINI~1\LOCALS~1\Temp\TI9922:L9:2:1261378494")
    1474                      .dwattr DW$112, DW_AT_begin_file("mainfeedforward.c")
    1475                      .dwattr DW$112, DW_AT_begin_line(0x1b1)
    1476                      .dwattr DW$112, DW_AT_end_line(0x1b4)
    1477              DW$113  .dwtag  DW_TAG_loop_range
    1478                      .dwattr DW$113, DW_AT_low_pc(DW$L$_overload$3$B)
    1479                      .dwattr DW$113, DW_AT_high_pc(DW$L$_overload$3$E)
    1480                      .dwendtag DW$112
    1481              
    1482                      .dwendtag DW$109
    1483              
    1484                      .dwattr DW$100, DW_AT_end_file("mainfeedforward.c")
    1485                      .dwattr DW$100, DW_AT_end_line(0x1de)
    1486                      .dwattr DW$100, DW_AT_end_column(0x01)
    1487                      .dwendentry
    1488                      .dwendtag DW$100
    1489              
    1490 000001e3               .sect   ".text"
    1491                      .global _control_run
    1492              
    1493              DW$114  .dwtag  DW_TAG_subprogram, DW_AT_name("control_run"), DW_AT_symbol_name("_control_run")
    1494                      .dwattr DW$114, DW_AT_low_pc(_control_run)
    1495                      .dwattr DW$114, DW_AT_high_pc(0x00)
    1496                      .dwattr DW$114, DW_AT_begin_file("mainfeedforward.c")
    1497                      .dwattr DW$114, DW_AT_begin_line(0x1e4)
    1498                      .dwattr DW$114, DW_AT_begin_column(0x10)
    1499                      .dwpsn  "mainfeedforward.c",485,1
    1500              
    1501                      .dwfde DW$CIE
    1502              
    1503              ;***************************************************************
    1504              ;* FNAME: _control_run                  FR SIZE:  12           *
    1505              ;*                                                             *
    1506              ;* FUNCTION ENVIRONMENT                                        *
    1507              ;*                                                             *
TMS320C2000 COFF Assembler PC v4.1.0 Mon Dec 21 14:54:55 2009

Tools Copyright (c) 1996-2005 Texas Instruments Incorporated
C:\DOCUME~1\ADMINI~1\LOCALS~1\Temp\TI9922                            PAGE   33

    1508              ;* FUNCTION PROPERTIES                                         *
    1509              ;*                            0 Parameter,  0 Auto, 12 SOE     *
    1510              ;***************************************************************
    1511              
    1512 000001e3       _control_run:
    1513 000001e3 761B          ASP
    1514                      .dwcfa  0x1d, -2
    1515                      .dwcfa  0x1c, 26, 0
    1516                      .dwcfa  0x09, 40, 26
    1517 000001e4 0005          PUSH      AR1H:AR0H
    1518                      .dwcfa  0x80, 5, 2
    1519                      .dwcfa  0x80, 7, 3
    1520                      .dwcfa  0x1d, -4
    1521 000001e5 A8BD          MOVL      *SP++,XAR4
    1522                      .dwcfa  0x80, 12, 4
    1523                      .dwcfa  0x80, 13, 5
    1524                      .dwcfa  0x1d, -6
    1525 000001e6 A0BD          MOVL      *SP++,XAR5
    1526                      .dwcfa  0x80, 14, 6
    1527                      .dwcfa  0x80, 15, 7
    1528                      .dwcfa  0x1d, -8
    1529 000001e7 C2BD          MOVL      *SP++,XAR6
    1530                      .dwcfa  0x80, 16, 8
    1531                      .dwcfa  0x80, 17, 9
    1532                      .dwcfa  0x1d, -10
    1533 000001e8 C3BD          MOVL      *SP++,XAR7
    1534                      .dwcfa  0x80, 18, 10
    1535                      .dwcfa  0x80, 19, 11
    1536                      .dwcfa  0x1d, -12
    1537 000001e9 ABBD          MOVL      *SP++,XT
    1538                      .dwcfa  0x80, 21, 12
    1539                      .dwcfa  0x80, 22, 13
    1540                      .dwcfa  0x1d, -14
    1541 000001ea FF69          SPM       0
    1542 000001eb 2942          CLRC      PAGE0,OVM
    1543 000001ec 5616          CLRC      AMODE
    1544                      .dwpsn  "mainfeedforward.c",487,2
    1545 000001ed 7640'         LCR       #_ADCsampling         ; |487| 
         000001ee 025C 
    1546                      ; call occurs [#_ADCsampling] ; |487| 
    1547                      .dwpsn  "mainfeedforward.c",489,2
    1548 000001ef 7640'         LCR       #_PLL                 ; |489| 
         000001f0 0309 
    1549                      ; call occurs [#_PLL] ; |489| 
    1550                      .dwpsn  "mainfeedforward.c",491,2
    1551 000001f1 9A00          MOV       AL,#0
    1552 000001f2 761F-         MOVW      DP,#_ADC_out_iq+4
         000001f3 0001 
    1553 000001f4 9B50          MOV       AH,#80
    1554 000001f5 0F36-         CMPL      ACC,@_ADC_out_iq+4    ; |491| 
    1555 000001f6 6242          B         L21,GT                ; |491| 
    1556                      ; branchcc occurs ; |491| 
    1557 000001f7 FF2F          MOV       ACC,#8000 << 15
         000001f8 1F40 
    1558 000001f9 0F36-         CMPL      ACC,@_ADC_out_iq+4    ; |491| 
TMS320C2000 COFF Assembler PC v4.1.0 Mon Dec 21 14:54:55 2009

Tools Copyright (c) 1996-2005 Texas Instruments Incorporated
C:\DOCUME~1\ADMINI~1\LOCALS~1\Temp\TI9922                            PAGE   34

    1559 000001fa 643E          B         L21,LT                ; |491| 
    1560                      ; branchcc occurs ; |491| 
    1561                      .dwpsn  "mainfeedforward.c",493,3
    1562 000001fb 761F-         MOVW      DP,#_con_auxstart
         000001fc 0000 
    1563 000001fd 9204-         MOV       AL,@_con_auxstart     ; |493| 
    1564 000001fe ED0F          BF        L17,NEQ               ; |493| 
    1565                      ; branchcc occurs ; |493| 
    1566                      .dwpsn  "mainfeedforward.c",495,4
    1567 000001ff 761F-         MOVW      DP,#_sogi_out1_iq
         00000200 0001 
    1568 00000201 0620-         MOVL      ACC,@_sogi_out1_iq    ; |495| 
    1569 00000202 640B          B         L17,LT                ; |495| 
    1570                      ; branchcc occurs ; |495| 
    1571 00000203 0624-         MOVL      ACC,@_sogi_out1_iq+4  ; |495| 
    1572 00000204 6209          B         L17,GT                ; |495| 
    1573                      ; branchcc occurs ; |495| 
    1574                      .dwpsn  "mainfeedforward.c",497,10
    1575 00000205 761F!         MOVW      DP,#_GpioDataRegs+3
         00000206 0000 
    1576 00000207 1A03!         OR        @_GpioDataRegs+3,#0x0020 ; |497| 
         00000208 0020 
    1577                      .dwpsn  "mainfeedforward.c",498,7
    1578 00000209 761F-         MOVW      DP,#_con_auxstart
         0000020a 0000 
    1579 0000020b 2804-         MOV       @_con_auxstart,#1     ; |498| 
         0000020c 0001 
    1580 0000020d       L17:    
    1581                      .dwpsn  "mainfeedforward.c",502,3
    1582 0000020d 761F-         MOVW      DP,#_con_auxstart
         0000020e 0000 
    1583 0000020f 9204-         MOV       AL,@_con_auxstart     ; |502| 
    1584 00000210 5201          CMPB      AL,#1                 ; |502| 
    1585 00000211 ED3B          BF        L22,NEQ               ; |502| 
    1586                      ; branchcc occurs ; |502| 
    1587                      .dwpsn  "mainfeedforward.c",504,4
    1588 00000212 8F08          MOVL      XAR4,#524288          ; |504| 
         00000213 0000 
    1589 00000214 761F-         MOVW      DP,#_con_M_iq
         00000215 0001 
    1590 00000216 A8A9          MOVL      ACC,XAR4              ; |504| 
    1591 00000217 0F06-         CMPL      ACC,@_con_M_iq        ; |504| 
    1592 00000218 6415          B         L19,LT                ; |504| 
    1593                      ; branchcc occurs ; |504| 
    1594                      .dwpsn  "mainfeedforward.c",506,5
    1595 00000219 0620-         MOVL      ACC,@_sogi_out1_iq    ; |506| 
    1596 0000021a 6407          B         L18,LT                ; |506| 
    1597                      ; branchcc occurs ; |506| 
    1598 0000021b 0624-         MOVL      ACC,@_sogi_out1_iq+4  ; |506| 
    1599 0000021c 6205          B         L18,GT                ; |506| 
    1600                      ; branchcc occurs ; |506| 
    1601                      .dwpsn  "mainfeedforward.c",508,6
    1602 0000021d FF20          MOV       ACC,#1310             ; |508| 
         0000021e 051E 
    1603 0000021f 0706-         ADDL      ACC,@_con_M_iq        ; |508| 
TMS320C2000 COFF Assembler PC v4.1.0 Mon Dec 21 14:54:55 2009

Tools Copyright (c) 1996-2005 Texas Instruments Incorporated
C:\DOCUME~1\ADMINI~1\LOCALS~1\Temp\TI9922                            PAGE   35

    1604 00000220 1E06-         MOVL      @_con_M_iq,ACC        ; |508| 
    1605 00000221       L18:    
    1606                      .dwpsn  "mainfeedforward.c",510,5
    1607 00000221 761F-         MOVW      DP,#_pll_cos_iq
         00000222 0000 
    1608 00000223 871C-         MOVL      XT,@_pll_cos_iq       ; |510| 
    1609 00000224 761F-         MOVW      DP,#_con_M_iq
         00000225 0001 
    1610 00000226 5605-         IMPYL     P,XT,@_con_M_iq       ; |510| 
         00000227 0006 
    1611 00000228 5663-         QMPYL     ACC,XT,@_con_M_iq     ; |510| 
         00000229 0006 
    1612 0000022a 56AC          LSL64     ACC:P,#13             ; |510| 
    1613 0000022b 1E04-         MOVL      @_con_sinref_iq,ACC   ; |510| 
    1614                      .dwpsn  "mainfeedforward.c",511,4
    1615 0000022c 6F07          B         L20,UNC               ; |511| 
    1616                      ; branch occurs ; |511| 
    1617 0000022d       L19:    
    1618                      .dwpsn  "mainfeedforward.c",514,5
    1619 0000022d 761F-         MOVW      DP,#_pll_cos_iq
         0000022e 0000 
    1620 0000022f 061C-         MOVL      ACC,@_pll_cos_iq      ; |514| 
    1621 00000230 761F-         MOVW      DP,#_con_sinref_iq
         00000231 0001 
    1622 00000232 1E04-         MOVL      @_con_sinref_iq,ACC   ; |514| 
    1623 00000233       L20:    
    1624                      .dwpsn  "mainfeedforward.c",519,4
    1625 00000233 7640'         LCR       #_Feedbackcontrol     ; |519| 
         00000234 0418 
    1626                      ; call occurs [#_Feedbackcontrol] ; |519| 
    1627                      .dwpsn  "mainfeedforward.c",520,4
    1628 00000235 7640'         LCR       #_EPWMcalculate       ; |520| 
         00000236 03EB 
    1629                      ; call occurs [#_EPWMcalculate] ; |520| 
    1630                      .dwpsn  "mainfeedforward.c",525,2
    1631 00000237 6F15          B         L22,UNC               ; |525| 
    1632                      ; branch occurs ; |525| 
    1633 00000238       L21:    
    1634                      .dwpsn  "mainfeedforward.c",528,3
    1635 00000238 761F!         MOVW      DP,#_GpioDataRegs+5
         00000239 0000 
    1636 0000023a 1A05!         OR        @_GpioDataRegs+5,#0x0020 ; |528| 
         0000023b 0020 
    1637                      .dwpsn  "mainfeedforward.c",529,3
    1638 0000023c 761F!         MOVW      DP,#_EPwm1Regs+9
         0000023d 0000 
    1639 0000023e 2809!         MOV       @_EPwm1Regs+9,#1250   ; |529| 
         0000023f 04E2 
    1640                      .dwpsn  "mainfeedforward.c",530,3
    1641 00000240 761F!         MOVW      DP,#_EPwm2Regs+9
         00000241 0000 
    1642 00000242 2809!         MOV       @_EPwm2Regs+9,#1250   ; |530| 
         00000243 04E2 
    1643                      .dwpsn  "mainfeedforward.c",531,3
    1644 00000244 761F-         MOVW      DP,#_con_auxstart
TMS320C2000 COFF Assembler PC v4.1.0 Mon Dec 21 14:54:55 2009

Tools Copyright (c) 1996-2005 Texas Instruments Incorporated
C:\DOCUME~1\ADMINI~1\LOCALS~1\Temp\TI9922                            PAGE   36

         00000245 0000 
    1645 00000246 2B04-         MOV       @_con_auxstart,#0     ; |531| 
    1646                      .dwpsn  "mainfeedforward.c",532,3
    1647 00000247 8F01          MOVL      XAR4,#104857          ; |532| 
         00000248 9999 
    1648 00000249 761F-         MOVW      DP,#_con_M_iq
         0000024a 0001 
    1649 0000024b A806-         MOVL      @_con_M_iq,XAR4       ; |532| 
    1650 0000024c       L22:    
    1651                      .dwpsn  "mainfeedforward.c",547,2
    1652 0000024c 761F!         MOVW      DP,#_EPwm1Regs+28
         0000024d 0000 
    1653 0000024e 1A1C!         OR        @_EPwm1Regs+28,#0x0001 ; |547| 
         0000024f 0001 
    1654                      .dwpsn  "mainfeedforward.c",548,2
    1655 00000250 761F!         MOVW      DP,#_PieCtrlRegs+1
         00000251 0000 
    1656 00000252 2801!         MOV       @_PieCtrlRegs+1,#4    ; |548| 
         00000253 0004 
    1657                      .dwpsn  "mainfeedforward.c",549,2
    1658                      .dwpsn  "mainfeedforward.c",550,1
    1659                      .dwcfa  0x1d, -14
    1660 00000254 87BE          MOVL      XT,*--SP
    1661                      .dwcfa  0x1d, -12
    1662                      .dwcfa  0xc0, 22
    1663                      .dwcfa  0xc0, 21
    1664 00000255 C5BE          MOVL      XAR7,*--SP
    1665                      .dwcfa  0x1d, -10
    1666                      .dwcfa  0xc0, 18
    1667 00000256 C4BE          MOVL      XAR6,*--SP
    1668                      .dwcfa  0x1d, -8
    1669                      .dwcfa  0xc0, 16
    1670 00000257 83BE          MOVL      XAR5,*--SP
    1671                      .dwcfa  0x1d, -6
    1672                      .dwcfa  0xc0, 14
    1673 00000258 8ABE          MOVL      XAR4,*--SP
    1674                      .dwcfa  0x1d, -4
    1675                      .dwcfa  0xc0, 12
    1676 00000259 0003          POP       AR1H:AR0H
    1677                      .dwcfa  0x1d, -2
    1678                      .dwcfa  0xc0, 5
    1679                      .dwcfa  0xc0, 7
    1680 0000025a 7617          NASP
    1681 0000025b 7602          IRET
    1682                      ; return occurs
    1683                      .dwattr DW$114, DW_AT_end_file("mainfeedforward.c")
    1684                      .dwattr DW$114, DW_AT_end_line(0x226)
    1685                      .dwattr DW$114, DW_AT_end_column(0x01)
    1686                      .dwendentry
    1687                      .dwendtag DW$114
    1688              
    1689 0000025c               .sect   ".text"
    1690                      .global _ADCsampling
    1691              
    1692              DW$115  .dwtag  DW_TAG_subprogram, DW_AT_name("ADCsampling"), DW_AT_symbol_name("_ADCsampling")
TMS320C2000 COFF Assembler PC v4.1.0 Mon Dec 21 14:54:55 2009

Tools Copyright (c) 1996-2005 Texas Instruments Incorporated
C:\DOCUME~1\ADMINI~1\LOCALS~1\Temp\TI9922                            PAGE   37

    1693                      .dwattr DW$115, DW_AT_low_pc(_ADCsampling)
    1694                      .dwattr DW$115, DW_AT_high_pc(0x00)
    1695                      .dwattr DW$115, DW_AT_begin_file("mainfeedforward.c")
    1696                      .dwattr DW$115, DW_AT_begin_line(0x22c)
    1697                      .dwattr DW$115, DW_AT_begin_column(0x06)
    1698                      .dwpsn  "mainfeedforward.c",557,1
    1699              
    1700                      .dwfde DW$CIE
    1701              
    1702              ;***************************************************************
    1703              ;* FNAME: _ADCsampling                  FR SIZE:  20           *
    1704              ;*                                                             *
    1705              ;* FUNCTION ENVIRONMENT                                        *
    1706              ;*                                                             *
    1707              ;* FUNCTION PROPERTIES                                         *
    1708              ;*                            0 Parameter, 20 Auto,  0 SOE     *
    1709              ;***************************************************************
    1710              
    1711 0000025c       _ADCsampling:
    1712                      .dwcfa  0x1d, -2
    1713                      .dwcfa  0x1c, 26, 0
    1714                      .dwcfa  0x09, 40, 26
    1715 0000025c FE14          ADDB      SP,#20
    1716                      .dwcfa  0x1d, -22
    1717              DW$116  .dwtag  DW_TAG_variable, DW_AT_name("a"), DW_AT_symbol_name("_a")
    1718                      .dwattr DW$116, DW_AT_type(*DW$T$10)
    1719                      .dwattr DW$116, DW_AT_location[DW_OP_breg20 -1]
    1720              DW$117  .dwtag  DW_TAG_variable, DW_AT_name("ADC_result_int"), DW_AT_symbol_name("_ADC_result_int")
    1721                      .dwattr DW$117, DW_AT_type(*DW$T$12)
    1722                      .dwattr DW$117, DW_AT_location[DW_OP_breg20 -4]
    1723              DW$118  .dwtag  DW_TAG_variable, DW_AT_name("ADC_result_int1"), DW_AT_symbol_name("_ADC_result_int1")
    1724                      .dwattr DW$118, DW_AT_type(*DW$T$12)
    1725                      .dwattr DW$118, DW_AT_location[DW_OP_breg20 -6]
    1726              DW$119  .dwtag  DW_TAG_variable, DW_AT_name("ADC_result_int2"), DW_AT_symbol_name("_ADC_result_int2")
    1727                      .dwattr DW$119, DW_AT_type(*DW$T$12)
    1728                      .dwattr DW$119, DW_AT_location[DW_OP_breg20 -8]
    1729              DW$120  .dwtag  DW_TAG_variable, DW_AT_name("ADC_result_int3"), DW_AT_symbol_name("_ADC_result_int3")
    1730                      .dwattr DW$120, DW_AT_type(*DW$T$12)
    1731                      .dwattr DW$120, DW_AT_location[DW_OP_breg20 -10]
    1732              DW$121  .dwtag  DW_TAG_variable, DW_AT_name("ADC_result_int4"), DW_AT_symbol_name("_ADC_result_int4")
    1733                      .dwattr DW$121, DW_AT_type(*DW$T$12)
    1734                      .dwattr DW$121, DW_AT_location[DW_OP_breg20 -12]
    1735                      .dwpsn  "mainfeedforward.c",558,8
    1736 0000025d 2B41          MOV       *-SP[1],#0            ; |558| 
    1737                      .dwpsn  "mainfeedforward.c",565,5
    1738 0000025e 761F!         MOVW      DP,#_AdcRegs+8
         0000025f 0000 
    1739 00000260 9208!         MOV       AL,@_AdcRegs+8        ; |565| 
    1740 00000261 FFC3          LSR       AL,4                  ; |565| 
    1741 00000262 0EA9          MOVU      ACC,AL
    1742 00000263 1E44          MOVL      *-SP[4],ACC           ; |565| 
    1743                      .dwpsn  "mainfeedforward.c",566,2
    1744 00000264 88AD          MOVZ      AR6,SP                ; |566| 
    1745 00000265 0644          MOVL      ACC,*-SP[4]           ; |566| 
    1746 00000266 DE94          SUBB      XAR6,#20              ; |566| 
TMS320C2000 COFF Assembler PC v4.1.0 Mon Dec 21 14:54:55 2009

Tools Copyright (c) 1996-2005 Texas Instruments Incorporated
C:\DOCUME~1\ADMINI~1\LOCALS~1\Temp\TI9922                            PAGE   38

    1747 00000267 7640!         LCR       #L$$TOFD              ; |566| 
         00000268 0000 
    1748                      ; call occurs [#L$$TOFD] ; |566| 
    1749 00000269 5CAD          MOVZ      AR4,SP                ; |566| 
    1750 0000026a 88AD          MOVZ      AR6,SP                ; |566| 
    1751 0000026b 8F40+         MOVL      XAR5,#FL1             ; |566| 
         0000026c 0000 
    1752 0000026d DC94          SUBB      XAR4,#20              ; |566| 
    1753 0000026e DE90          SUBB      XAR6,#16              ; |566| 
    1754 0000026f 7640!         LCR       #FD$$MPY              ; |566| 
         00000270 0000 
    1755                      ; call occurs [#FD$$MPY] ; |566| 
    1756 00000271 5CAD          MOVZ      AR4,SP                ; |566| 
    1757 00000272 DC90          SUBB      XAR4,#16              ; |566| 
    1758 00000273 7640!         LCR       #FD$$TOL              ; |566| 
         00000274 0000 
    1759                      ; call occurs [#FD$$TOL] ; |566| 
    1760 00000275 761F-         MOVW      DP,#_ADC_offset_iq
         00000276 0001 
    1761 00000277 0308-         SUBL      ACC,@_ADC_offset_iq   ; |566| 
    1762 00000278 1E32-         MOVL      @_ADC_out_iq,ACC      ; |566| 
    1763                      .dwpsn  "mainfeedforward.c",568,2
    1764 00000279 761F!         MOVW      DP,#_AdcRegs+9
         0000027a 0000 
    1765 0000027b 9209!         MOV       AL,@_AdcRegs+9        ; |568| 
    1766 0000027c FFC3          LSR       AL,4                  ; |568| 
    1767 0000027d 0EA9          MOVU      ACC,AL
    1768 0000027e 1E46          MOVL      *-SP[6],ACC           ; |568| 
    1769                      .dwpsn  "mainfeedforward.c",569,2
    1770 0000027f 88AD          MOVZ      AR6,SP                ; |569| 
    1771 00000280 0646          MOVL      ACC,*-SP[6]           ; |569| 
    1772 00000281 DE94          SUBB      XAR6,#20              ; |569| 
    1773 00000282 7640!         LCR       #L$$TOFD              ; |569| 
         00000283 0000 
    1774                      ; call occurs [#L$$TOFD] ; |569| 
    1775 00000284 88AD          MOVZ      AR6,SP                ; |569| 
    1776 00000285 5CAD          MOVZ      AR4,SP                ; |569| 
    1777 00000286 DE90          SUBB      XAR6,#16              ; |569| 
    1778 00000287 DC94          SUBB      XAR4,#20              ; |569| 
    1779 00000288 8F40+         MOVL      XAR5,#FL1             ; |569| 
         00000289 0000 
    1780 0000028a 7640!         LCR       #FD$$MPY              ; |569| 
         0000028b 0000 
    1781                      ; call occurs [#FD$$MPY] ; |569| 
    1782 0000028c 5CAD          MOVZ      AR4,SP                ; |569| 
    1783 0000028d DC90          SUBB      XAR4,#16              ; |569| 
    1784 0000028e 7640!         LCR       #FD$$TOL              ; |569| 
         0000028f 0000 
    1785                      ; call occurs [#FD$$TOL] ; |569| 
    1786 00000290 761F-         MOVW      DP,#_ADC_offset_iq
         00000291 0001 
    1787 00000292 0308-         SUBL      ACC,@_ADC_offset_iq   ; |569| 
    1788 00000293 1E34-         MOVL      @_ADC_out_iq+2,ACC    ; |569| 
    1789                      .dwpsn  "mainfeedforward.c",571,2
    1790 00000294 761F!         MOVW      DP,#_AdcRegs+10
TMS320C2000 COFF Assembler PC v4.1.0 Mon Dec 21 14:54:55 2009

Tools Copyright (c) 1996-2005 Texas Instruments Incorporated
C:\DOCUME~1\ADMINI~1\LOCALS~1\Temp\TI9922                            PAGE   39

         00000295 0000 
    1791 00000296 920A!         MOV       AL,@_AdcRegs+10       ; |571| 
    1792 00000297 FFC3          LSR       AL,4                  ; |571| 
    1793 00000298 0EA9          MOVU      ACC,AL
    1794 00000299 1E48          MOVL      *-SP[8],ACC           ; |571| 
    1795                      .dwpsn  "mainfeedforward.c",572,2
    1796 0000029a 88AD          MOVZ      AR6,SP                ; |572| 
    1797 0000029b 0648          MOVL      ACC,*-SP[8]           ; |572| 
    1798 0000029c DE94          SUBB      XAR6,#20              ; |572| 
    1799 0000029d 7640!         LCR       #L$$TOFD              ; |572| 
         0000029e 0000 
    1800                      ; call occurs [#L$$TOFD] ; |572| 
    1801 0000029f 88AD          MOVZ      AR6,SP                ; |572| 
    1802 000002a0 5CAD          MOVZ      AR4,SP                ; |572| 
    1803 000002a1 DE90          SUBB      XAR6,#16              ; |572| 
    1804 000002a2 DC94          SUBB      XAR4,#20              ; |572| 
    1805 000002a3 8F40+         MOVL      XAR5,#FL1             ; |572| 
         000002a4 0000 
    1806 000002a5 7640!         LCR       #FD$$MPY              ; |572| 
         000002a6 0000 
    1807                      ; call occurs [#FD$$MPY] ; |572| 
    1808 000002a7 5CAD          MOVZ      AR4,SP                ; |572| 
    1809 000002a8 DC90          SUBB      XAR4,#16              ; |572| 
    1810 000002a9 7640!         LCR       #FD$$TOL              ; |572| 
         000002aa 0000 
    1811                      ; call occurs [#FD$$TOL] ; |572| 
    1812 000002ab 761F-         MOVW      DP,#_ADC_out_iq+4
         000002ac 0001 
    1813 000002ad 1E36-         MOVL      @_ADC_out_iq+4,ACC    ; |572| 
    1814                      .dwpsn  "mainfeedforward.c",574,2
    1815 000002ae 761F!         MOVW      DP,#_AdcRegs+11
         000002af 0000 
    1816 000002b0 920B!         MOV       AL,@_AdcRegs+11       ; |574| 
    1817 000002b1 FFC3          LSR       AL,4                  ; |574| 
    1818 000002b2 0EA9          MOVU      ACC,AL
    1819 000002b3 1E4A          MOVL      *-SP[10],ACC          ; |574| 
    1820                      .dwpsn  "mainfeedforward.c",575,2
    1821 000002b4 88AD          MOVZ      AR6,SP                ; |575| 
    1822 000002b5 064A          MOVL      ACC,*-SP[10]          ; |575| 
    1823 000002b6 DE94          SUBB      XAR6,#20              ; |575| 
    1824 000002b7 7640!         LCR       #L$$TOFD              ; |575| 
         000002b8 0000 
    1825                      ; call occurs [#L$$TOFD] ; |575| 
    1826 000002b9 88AD          MOVZ      AR6,SP                ; |575| 
    1827 000002ba 5CAD          MOVZ      AR4,SP                ; |575| 
    1828 000002bb DE90          SUBB      XAR6,#16              ; |575| 
    1829 000002bc DC94          SUBB      XAR4,#20              ; |575| 
    1830 000002bd 8F40+         MOVL      XAR5,#FL1             ; |575| 
         000002be 0000 
    1831 000002bf 7640!         LCR       #FD$$MPY              ; |575| 
         000002c0 0000 
    1832                      ; call occurs [#FD$$MPY] ; |575| 
    1833 000002c1 5CAD          MOVZ      AR4,SP                ; |575| 
    1834 000002c2 DC90          SUBB      XAR4,#16              ; |575| 
    1835 000002c3 7640!         LCR       #FD$$TOL              ; |575| 
TMS320C2000 COFF Assembler PC v4.1.0 Mon Dec 21 14:54:55 2009

Tools Copyright (c) 1996-2005 Texas Instruments Incorporated
C:\DOCUME~1\ADMINI~1\LOCALS~1\Temp\TI9922                            PAGE   40

         000002c4 0000 
    1836                      ; call occurs [#FD$$TOL] ; |575| 
    1837 000002c5 761F-         MOVW      DP,#_ADC_offset_iq
         000002c6 0001 
    1838 000002c7 0308-         SUBL      ACC,@_ADC_offset_iq   ; |575| 
    1839 000002c8 1E38-         MOVL      @_ADC_out_iq+6,ACC    ; |575| 
    1840                      .dwpsn  "mainfeedforward.c",577,2
    1841 000002c9 761F!         MOVW      DP,#_AdcRegs+12
         000002ca 0000 
    1842 000002cb 920C!         MOV       AL,@_AdcRegs+12       ; |577| 
    1843 000002cc FFC3          LSR       AL,4                  ; |577| 
    1844 000002cd 0EA9          MOVU      ACC,AL
    1845 000002ce 1E4C          MOVL      *-SP[12],ACC          ; |577| 
    1846                      .dwpsn  "mainfeedforward.c",578,2
    1847 000002cf 88AD          MOVZ      AR6,SP                ; |578| 
    1848 000002d0 064C          MOVL      ACC,*-SP[12]          ; |578| 
    1849 000002d1 DE94          SUBB      XAR6,#20              ; |578| 
    1850 000002d2 7640!         LCR       #L$$TOFD              ; |578| 
         000002d3 0000 
    1851                      ; call occurs [#L$$TOFD] ; |578| 
    1852 000002d4 88AD          MOVZ      AR6,SP                ; |578| 
    1853 000002d5 5CAD          MOVZ      AR4,SP                ; |578| 
    1854 000002d6 8F40+         MOVL      XAR5,#FL1             ; |578| 
         000002d7 0000 
    1855 000002d8 DE90          SUBB      XAR6,#16              ; |578| 
    1856 000002d9 DC94          SUBB      XAR4,#20              ; |578| 
    1857 000002da 7640!         LCR       #FD$$MPY              ; |578| 
         000002db 0000 
    1858                      ; call occurs [#FD$$MPY] ; |578| 
    1859 000002dc 5CAD          MOVZ      AR4,SP                ; |578| 
    1860 000002dd DC90          SUBB      XAR4,#16              ; |578| 
    1861 000002de 7640!         LCR       #FD$$TOL              ; |578| 
         000002df 0000 
    1862                      ; call occurs [#FD$$TOL] ; |578| 
    1863 000002e0 761F-         MOVW      DP,#_ADC_offset_iq
         000002e1 0001 
    1864 000002e2 0308-         SUBL      ACC,@_ADC_offset_iq   ; |578| 
    1865 000002e3 1E3A-         MOVL      @_ADC_out_iq+8,ACC    ; |578| 
    1866                      .dwpsn  "mainfeedforward.c",580,6
    1867 000002e4 2B41          MOV       *-SP[1],#0            ; |580| 
    1868                      .dwpsn  "mainfeedforward.c",580,10
    1869 000002e5 9241          MOV       AL,*-SP[1]            ; |580| 
    1870 000002e6 5206          CMPB      AL,#6                 ; |580| 
    1871 000002e7 6320          B         L24,GEQ               ; |580| 
    1872                      ; branchcc occurs ; |580| 
    1873 000002e8       L23:    
    1874 000002e8       DW$L$_ADCsampling$3$B:
    1875                      .dwpsn  "mainfeedforward.c",582,3
    1876 000002e8 3B01          SETC      SXM
    1877 000002e9 8F00-         MOVL      XAR4,#_ADC_fk_iq      ; |582| 
         000002ea 0080 
    1878 000002eb 5603          MOV       ACC,*-SP[1] << 1      ; |582| 
         000002ec 0141 
    1879 000002ed 8F40-         MOVL      XAR5,#_ADC_out_iq     ; |582| 
         000002ee 0072 
TMS320C2000 COFF Assembler PC v4.1.0 Mon Dec 21 14:54:55 2009

Tools Copyright (c) 1996-2005 Texas Instruments Incorporated
C:\DOCUME~1\ADMINI~1\LOCALS~1\Temp\TI9922                            PAGE   41

    1880 000002ef 5601          ADDL      XAR4,ACC
         000002f0 00A4 
    1881 000002f1 5603          MOV       ACC,*-SP[1] << 1      ; |582| 
         000002f2 0141 
    1882 000002f3 5601          ADDL      XAR5,ACC
         000002f4 00A5 
    1883 000002f5 87C5          MOVL      XT,*+XAR5[0]          ; |582| 
    1884 000002f6 5605          IMPYL     P,XT,*+XAR4[0]        ; |582| 
         000002f7 00C4 
    1885 000002f8 5663          QMPYL     ACC,XT,*+XAR4[0]      ; |582| 
         000002f9 00C4 
    1886 000002fa 56A3          LSL64     ACC:P,#4              ; |582| 
    1887 000002fb 1EA6          MOVL      XAR6,ACC              ; |582| 
    1888 000002fc 8F00-         MOVL      XAR4,#_ADC_out_iq     ; |582| 
         000002fd 0072 
    1889 000002fe 5603          MOV       ACC,*-SP[1] << 1      ; |582| 
         000002ff 0141 
    1890 00000300 5601          ADDL      XAR4,ACC
         00000301 00A4 
    1891 00000302 C2C4          MOVL      *+XAR4[0],XAR6        ; |582| 
    1892                      .dwpsn  "mainfeedforward.c",580,14
    1893 00000303 0A41          INC       *-SP[1]               ; |580| 
    1894                      .dwpsn  "mainfeedforward.c",580,10
    1895 00000304 9241          MOV       AL,*-SP[1]            ; |580| 
    1896 00000305 5206          CMPB      AL,#6                 ; |580| 
    1897 00000306 64E2          B         L23,LT                ; |580| 
    1898                      ; branchcc occurs ; |580| 
    1899 00000307       DW$L$_ADCsampling$3$E:
    1900                      .dwpsn  "mainfeedforward.c",585,2
    1901 00000307       L24:    
    1902                      .dwpsn  "mainfeedforward.c",586,1
    1903 00000307 FE94          SUBB      SP,#20
    1904                      .dwcfa  0x1d, -2
    1905 00000308 0006          LRETR
    1906                      ; return occurs
    1907              
    1908              DW$122  .dwtag  DW_TAG_loop
    1909                      .dwattr DW$122, DW_AT_name("C:\DOCUME~1\ADMINI~1\LOCALS~1\Temp\TI9922:L23:1:1261378494")
    1910                      .dwattr DW$122, DW_AT_begin_file("mainfeedforward.c")
    1911                      .dwattr DW$122, DW_AT_begin_line(0x244)
    1912                      .dwattr DW$122, DW_AT_end_line(0x247)
    1913              DW$123  .dwtag  DW_TAG_loop_range
    1914                      .dwattr DW$123, DW_AT_low_pc(DW$L$_ADCsampling$3$B)
    1915                      .dwattr DW$123, DW_AT_high_pc(DW$L$_ADCsampling$3$E)
    1916                      .dwendtag DW$122
    1917              
    1918                      .dwattr DW$115, DW_AT_end_file("mainfeedforward.c")
    1919                      .dwattr DW$115, DW_AT_end_line(0x24a)
    1920                      .dwattr DW$115, DW_AT_end_column(0x01)
    1921                      .dwendentry
    1922                      .dwendtag DW$115
    1923              
    1924 00000309               .sect   ".text"
    1925                      .global _PLL
    1926              
TMS320C2000 COFF Assembler PC v4.1.0 Mon Dec 21 14:54:55 2009

Tools Copyright (c) 1996-2005 Texas Instruments Incorporated
C:\DOCUME~1\ADMINI~1\LOCALS~1\Temp\TI9922                            PAGE   42

    1927              DW$124  .dwtag  DW_TAG_subprogram, DW_AT_name("PLL"), DW_AT_symbol_name("_PLL")
    1928                      .dwattr DW$124, DW_AT_low_pc(_PLL)
    1929                      .dwattr DW$124, DW_AT_high_pc(0x00)
    1930                      .dwattr DW$124, DW_AT_begin_file("mainfeedforward.c")
    1931                      .dwattr DW$124, DW_AT_begin_line(0x24e)
    1932                      .dwattr DW$124, DW_AT_begin_column(0x06)
    1933                      .dwpsn  "mainfeedforward.c",591,1
    1934              
    1935                      .dwfde DW$CIE
    1936              
    1937              ;***************************************************************
    1938              ;* FNAME: _PLL                          FR SIZE:   8           *
    1939              ;*                                                             *
    1940              ;* FUNCTION ENVIRONMENT                                        *
    1941              ;*                                                             *
    1942              ;* FUNCTION PROPERTIES                                         *
    1943              ;*                            0 Parameter,  8 Auto,  0 SOE     *
    1944              ;***************************************************************
    1945              
    1946 00000309       _PLL:
    1947                      .dwcfa  0x1d, -2
    1948                      .dwcfa  0x1c, 26, 0
    1949                      .dwcfa  0x09, 40, 26
    1950 00000309 FE08          ADDB      SP,#8
    1951                      .dwcfa  0x1d, -10
    1952              DW$125  .dwtag  DW_TAG_variable, DW_AT_name("f1l_tp_iq15"), DW_AT_symbol_name("_f1l_tp_iq15")
    1953                      .dwattr DW$125, DW_AT_type(*DW$T$162)
    1954                      .dwattr DW$125, DW_AT_location[DW_OP_breg20 -2]
    1955              DW$126  .dwtag  DW_TAG_variable, DW_AT_name("fll_Ev_iq"), DW_AT_symbol_name("_fll_Ev_iq")
    1956                      .dwattr DW$126, DW_AT_type(*DW$T$153)
    1957                      .dwattr DW$126, DW_AT_location[DW_OP_breg20 -4]
    1958              DW$127  .dwtag  DW_TAG_variable, DW_AT_name("fll_temp1_iq"), DW_AT_symbol_name("_fll_temp1_iq")
    1959                      .dwattr DW$127, DW_AT_type(*DW$T$153)
    1960                      .dwattr DW$127, DW_AT_location[DW_OP_breg20 -6]
    1961              DW$128  .dwtag  DW_TAG_variable, DW_AT_name("fll_temp2_iq"), DW_AT_symbol_name("_fll_temp2_iq")
    1962                      .dwattr DW$128, DW_AT_type(*DW$T$153)
    1963                      .dwattr DW$128, DW_AT_location[DW_OP_breg20 -8]
    1964                      .dwpsn  "mainfeedforward.c",596,2
    1965 0000030a 761F-         MOVW      DP,#_sogi_out1_iq
         0000030b 0001 
    1966 0000030c 0620-         MOVL      ACC,@_sogi_out1_iq    ; |596| 
    1967 0000030d 0338-         SUBL      ACC,@_ADC_out_iq+6    ; |596| 
    1968 0000030e 1E44          MOVL      *-SP[4],ACC           ; |596| 
    1969                      .dwpsn  "mainfeedforward.c",597,2
    1970 0000030f 761F-         MOVW      DP,#_sogi_satH_iq
         00000310 0000 
    1971 00000311 0644          MOVL      ACC,*-SP[4]           ; |597| 
    1972 00000312 5650-         MINL      ACC,@_sogi_satH_iq    ; |597| 
         00000313 000E 
    1973 00000314 5661-         MAXL      ACC,@_sogi_satL_iq    ; |597| 
         00000315 000C 
    1974 00000316 1E44          MOVL      *-SP[4],ACC           ; |597| 
    1975                      .dwpsn  "mainfeedforward.c",598,2
    1976 00000317 761F-         MOVW      DP,#_sogi_out2_iq
         00000318 0001 
TMS320C2000 COFF Assembler PC v4.1.0 Mon Dec 21 14:54:55 2009

Tools Copyright (c) 1996-2005 Texas Instruments Incorporated
C:\DOCUME~1\ADMINI~1\LOCALS~1\Temp\TI9922                            PAGE   43

    1977 00000319 8744          MOVL      XT,*-SP[4]            ; |598| 
    1978 0000031a 5605-         IMPYL     P,XT,@_sogi_out2_iq   ; |598| 
         0000031b 0014 
    1979 0000031c 5663-         QMPYL     ACC,XT,@_sogi_out2_iq ; |598| 
         0000031d 0014 
    1980 0000031e 56A8          LSL64     ACC:P,#9              ; |598| 
    1981 0000031f 1E42          MOVL      *-SP[2],ACC           ; |598| 
    1982                      .dwpsn  "mainfeedforward.c",599,2
    1983 00000320 761F-         MOVW      DP,#_fll_gain_iq30
         00000321 0000 
    1984 00000322 8742          MOVL      XT,*-SP[2]            ; |599| 
    1985 00000323 5605-         IMPYL     P,XT,@_fll_gain_iq30  ; |599| 
         00000324 001E 
    1986 00000325 5663-         QMPYL     ACC,XT,@_fll_gain_iq30 ; |599| 
         00000326 001E 
    1987 00000327 56A5          LSL64     ACC:P,#6              ; |599| 
    1988 00000328 1E46          MOVL      *-SP[6],ACC           ; |599| 
    1989                      .dwpsn  "mainfeedforward.c",600,2
    1990 00000329 8746          MOVL      XT,*-SP[6]            ; |600| 
    1991 0000032a 5605-         IMPYL     P,XT,@_TS_iq          ; |600| 
         0000032b 001A 
    1992 0000032c 5663-         QMPYL     ACC,XT,@_TS_iq        ; |600| 
         0000032d 001A 
    1993 0000032e 761F-         MOVW      DP,#_fll_out_iq
         0000032f 0001 
    1994 00000330 56AC          LSL64     ACC:P,#13             ; |600| 
    1995 00000331 5601-         ADDL      @_fll_out_iq,ACC      ; |600| 
         00000332 000C 
    1996                      .dwpsn  "mainfeedforward.c",602,2
    1997 00000333 0644          MOVL      ACC,*-SP[4]           ; |602| 
    1998 00000334 FF54          NEG       ACC                   ; |602| 
    1999 00000335 1E44          MOVL      *-SP[4],ACC           ; |602| 
    2000                      .dwpsn  "mainfeedforward.c",603,2
    2001 00000336 8744          MOVL      XT,*-SP[4]            ; |603| 
    2002 00000337 5605-         IMPYL     P,XT,@_sogi_gain_iq   ; |603| 
         00000338 000A 
    2003 00000339 5663-         QMPYL     ACC,XT,@_sogi_gain_iq ; |603| 
         0000033a 000A 
    2004 0000033b 56AC          LSL64     ACC:P,#13             ; |603| 
    2005 0000033c 0314-         SUBL      ACC,@_sogi_out2_iq    ; |603| 
    2006 0000033d 1E48          MOVL      *-SP[8],ACC           ; |603| 
    2007                      .dwpsn  "mainfeedforward.c",605,5
    2008 0000033e 8748          MOVL      XT,*-SP[8]            ; |605| 
    2009 0000033f 5605-         IMPYL     P,XT,@_fll_out_iq     ; |605| 
         00000340 000C 
    2010 00000341 5663-         QMPYL     ACC,XT,@_fll_out_iq   ; |605| 
         00000342 000C 
    2011 00000343 56A4          LSL64     ACC:P,#5              ; |605| 
    2012 00000344 1E2C-         MOVL      @_sogi_in1_iq,ACC     ; |605| 
    2013                      .dwpsn  "mainfeedforward.c",606,2
    2014 00000345 872E-         MOVL      XT,@_sogi_in1_iq+2    ; |606| 
    2015 00000346 5605-         IMPYL     P,XT,@_sogiT1_iq30    ; |606| 
         00000347 000E 
    2016 00000348 5663-         QMPYL     ACC,XT,@_sogiT1_iq30  ; |606| 
         00000349 000E 
TMS320C2000 COFF Assembler PC v4.1.0 Mon Dec 21 14:54:55 2009

Tools Copyright (c) 1996-2005 Texas Instruments Incorporated
C:\DOCUME~1\ADMINI~1\LOCALS~1\Temp\TI9922                            PAGE   44

    2017 0000034a 56A9          LSL64     ACC:P,#10             ; |606| 
    2018 0000034b 1E46          MOVL      *-SP[6],ACC           ; |606| 
    2019                      .dwpsn  "mainfeedforward.c",607,2
    2020 0000034c 8730-         MOVL      XT,@_sogi_in1_iq+4    ; |607| 
    2021 0000034d 5605-         IMPYL     P,XT,@_sogiT2_iq30    ; |607| 
         0000034e 0012 
    2022 0000034f 5663-         QMPYL     ACC,XT,@_sogiT2_iq30  ; |607| 
         00000350 0012 
    2023 00000351 56A9          LSL64     ACC:P,#10             ; |607| 
    2024 00000352 1E48          MOVL      *-SP[8],ACC           ; |607| 
    2025                      .dwpsn  "mainfeedforward.c",608,2
    2026 00000353 0646          MOVL      ACC,*-SP[6]           ; |608| 
    2027 00000354 0722-         ADDL      ACC,@_sogi_out1_iq+2  ; |608| 
    2028 00000355 0348          SUBL      ACC,*-SP[8]           ; |608| 
    2029 00000356 1E20-         MOVL      @_sogi_out1_iq,ACC    ; |608| 
    2030                      .dwpsn  "mainfeedforward.c",610,2
    2031 00000357 8720-         MOVL      XT,@_sogi_out1_iq     ; |610| 
    2032 00000358 5605-         IMPYL     P,XT,@_fll_out_iq     ; |610| 
         00000359 000C 
    2033 0000035a 5663-         QMPYL     ACC,XT,@_fll_out_iq   ; |610| 
         0000035b 000C 
    2034 0000035c 56A4          LSL64     ACC:P,#5              ; |610| 
    2035 0000035d 1E26-         MOVL      @_sogi_in2_iq,ACC     ; |610| 
    2036                      .dwpsn  "mainfeedforward.c",611,2
    2037 0000035e 8728-         MOVL      XT,@_sogi_in2_iq+2    ; |611| 
    2038 0000035f 5605-         IMPYL     P,XT,@_sogiT1_iq30    ; |611| 
         00000360 000E 
    2039 00000361 5663-         QMPYL     ACC,XT,@_sogiT1_iq30  ; |611| 
         00000362 000E 
    2040 00000363 56A9          LSL64     ACC:P,#10             ; |611| 
    2041 00000364 1E46          MOVL      *-SP[6],ACC           ; |611| 
    2042                      .dwpsn  "mainfeedforward.c",612,2
    2043 00000365 872A-         MOVL      XT,@_sogi_in2_iq+4    ; |612| 
    2044 00000366 5605-         IMPYL     P,XT,@_sogiT2_iq30    ; |612| 
         00000367 0012 
    2045 00000368 5663-         QMPYL     ACC,XT,@_sogiT2_iq30  ; |612| 
         00000369 0012 
    2046 0000036a 56A9          LSL64     ACC:P,#10             ; |612| 
    2047 0000036b 1E48          MOVL      *-SP[8],ACC           ; |612| 
    2048                      .dwpsn  "mainfeedforward.c",613,2
    2049 0000036c 0646          MOVL      ACC,*-SP[6]           ; |613| 
    2050 0000036d 0716-         ADDL      ACC,@_sogi_out2_iq+2  ; |613| 
    2051 0000036e 0348          SUBL      ACC,*-SP[8]           ; |613| 
    2052 0000036f 1E14-         MOVL      @_sogi_out2_iq,ACC    ; |613| 
    2053                      .dwpsn  "mainfeedforward.c",615,2
    2054 00000370 0622-         MOVL      ACC,@_sogi_out1_iq+2  ; |615| 
    2055 00000371 1E24-         MOVL      @_sogi_out1_iq+4,ACC  ; |615| 
    2056                      .dwpsn  "mainfeedforward.c",617,2
    2057 00000372 0620-         MOVL      ACC,@_sogi_out1_iq    ; |617| 
    2058 00000373 1E22-         MOVL      @_sogi_out1_iq+2,ACC  ; |617| 
    2059                      .dwpsn  "mainfeedforward.c",618,2
    2060 00000374 062E-         MOVL      ACC,@_sogi_in1_iq+2   ; |618| 
    2061 00000375 1E30-         MOVL      @_sogi_in1_iq+4,ACC   ; |618| 
    2062                      .dwpsn  "mainfeedforward.c",619,2
    2063 00000376 062C-         MOVL      ACC,@_sogi_in1_iq     ; |619| 
TMS320C2000 COFF Assembler PC v4.1.0 Mon Dec 21 14:54:55 2009

Tools Copyright (c) 1996-2005 Texas Instruments Incorporated
C:\DOCUME~1\ADMINI~1\LOCALS~1\Temp\TI9922                            PAGE   45

    2064 00000377 1E2E-         MOVL      @_sogi_in1_iq+2,ACC   ; |619| 
    2065                      .dwpsn  "mainfeedforward.c",621,2
    2066 00000378 0614-         MOVL      ACC,@_sogi_out2_iq    ; |621| 
    2067 00000379 1E16-         MOVL      @_sogi_out2_iq+2,ACC  ; |621| 
    2068                      .dwpsn  "mainfeedforward.c",622,2
    2069 0000037a 0628-         MOVL      ACC,@_sogi_in2_iq+2   ; |622| 
    2070 0000037b 1E2A-         MOVL      @_sogi_in2_iq+4,ACC   ; |622| 
    2071                      .dwpsn  "mainfeedforward.c",623,2
    2072 0000037c 0626-         MOVL      ACC,@_sogi_in2_iq     ; |623| 
    2073 0000037d 1E28-         MOVL      @_sogi_in2_iq+2,ACC   ; |623| 
    2074                      .dwpsn  "mainfeedforward.c",627,2
    2075 0000037e 8720-         MOVL      XT,@_sogi_out1_iq     ; |627| 
    2076 0000037f 761F-         MOVW      DP,#_pll_sin_iq
         00000380 0000 
    2077 00000381 5605-         IMPYL     P,XT,@_pll_sin_iq     ; |627| 
         00000382 0012 
    2078 00000383 5663-         QMPYL     ACC,XT,@_pll_sin_iq   ; |627| 
         00000384 0012 
    2079 00000385 56AC          LSL64     ACC:P,#13             ; |627| 
    2080 00000386 1E46          MOVL      *-SP[6],ACC           ; |627| 
    2081                      .dwpsn  "mainfeedforward.c",628,2
    2082 00000387 761F-         MOVW      DP,#_sogi_out2_iq
         00000388 0001 
    2083 00000389 8714-         MOVL      XT,@_sogi_out2_iq     ; |628| 
    2084 0000038a 761F-         MOVW      DP,#_pll_cos_iq
         0000038b 0000 
    2085 0000038c 5605-         IMPYL     P,XT,@_pll_cos_iq     ; |628| 
         0000038d 001C 
    2086 0000038e 5663-         QMPYL     ACC,XT,@_pll_cos_iq   ; |628| 
         0000038f 001C 
    2087 00000390 56AC          LSL64     ACC:P,#13             ; |628| 
    2088 00000391 1E48          MOVL      *-SP[8],ACC           ; |628| 
    2089                      .dwpsn  "mainfeedforward.c",629,2
    2090 00000392 0648          MOVL      ACC,*-SP[8]           ; |629| 
    2091 00000393 761F-         MOVW      DP,#_pll_Vd_iq
         00000394 0001 
    2092 00000395 0346          SUBL      ACC,*-SP[6]           ; |629| 
    2093 00000396 1E18-         MOVL      @_pll_Vd_iq,ACC       ; |629| 
    2094                      .dwpsn  "mainfeedforward.c",631,2
    2095 00000397 8718-         MOVL      XT,@_pll_Vd_iq        ; |631| 
    2096 00000398 761F-         MOVW      DP,#_pll_ks_iq
         00000399 0000 
    2097 0000039a 5605-         IMPYL     P,XT,@_pll_ks_iq      ; |631| 
         0000039b 0016 
    2098 0000039c 5663-         QMPYL     ACC,XT,@_pll_ks_iq    ; |631| 
         0000039d 0016 
    2099 0000039e 56AC          LSL64     ACC:P,#13             ; |631| 
    2100 0000039f 1E46          MOVL      *-SP[6],ACC           ; |631| 
    2101                      .dwpsn  "mainfeedforward.c",632,2
    2102 000003a0 761F-         MOVW      DP,#_pll_Vd_iq+2
         000003a1 0001 
    2103 000003a2 871A-         MOVL      XT,@_pll_Vd_iq+2      ; |632| 
    2104 000003a3 761F-         MOVW      DP,#_pll_kp_iq
         000003a4 0000 
    2105 000003a5 5605-         IMPYL     P,XT,@_pll_kp_iq      ; |632| 
TMS320C2000 COFF Assembler PC v4.1.0 Mon Dec 21 14:54:55 2009

Tools Copyright (c) 1996-2005 Texas Instruments Incorporated
C:\DOCUME~1\ADMINI~1\LOCALS~1\Temp\TI9922                            PAGE   46

         000003a6 0018 
    2106 000003a7 5663-         QMPYL     ACC,XT,@_pll_kp_iq    ; |632| 
         000003a8 0018 
    2107 000003a9 56AC          LSL64     ACC:P,#13             ; |632| 
    2108 000003aa 1E48          MOVL      *-SP[8],ACC           ; |632| 
    2109                      .dwpsn  "mainfeedforward.c",633,2
    2110 000003ab 761F-         MOVW      DP,#_pll_Vd_iq
         000003ac 0001 
    2111 000003ad 0618-         MOVL      ACC,@_pll_Vd_iq       ; |633| 
    2112 000003ae 1E1A-         MOVL      @_pll_Vd_iq+2,ACC     ; |633| 
    2113                      .dwpsn  "mainfeedforward.c",634,2
    2114 000003af 761F-         MOVW      DP,#_pll_Vo_iq
         000003b0 0000 
    2115 000003b1 0646          MOVL      ACC,*-SP[6]           ; |634| 
    2116 000003b2 0714-         ADDL      ACC,@_pll_Vo_iq       ; |634| 
    2117 000003b3 0348          SUBL      ACC,*-SP[8]           ; |634| 
    2118 000003b4 1E14-         MOVL      @_pll_Vo_iq,ACC       ; |634| 
    2119                      .dwpsn  "mainfeedforward.c",636,2
    2120 000003b5 8714-         MOVL      XT,@_pll_Vo_iq        ; |636| 
    2121 000003b6 5605-         IMPYL     P,XT,@_TS_iq          ; |636| 
         000003b7 001A 
    2122 000003b8 5663-         QMPYL     ACC,XT,@_TS_iq        ; |636| 
         000003b9 001A 
    2123 000003ba 56AC          LSL64     ACC:P,#13             ; |636| 
    2124 000003bb 1E46          MOVL      *-SP[6],ACC           ; |636| 
    2125                      .dwpsn  "mainfeedforward.c",637,2
    2126 000003bc 761F-         MOVW      DP,#_fll_out_iq
         000003bd 0001 
    2127 000003be 870C-         MOVL      XT,@_fll_out_iq       ; |637| 
    2128 000003bf 761F-         MOVW      DP,#_TS_iq
         000003c0 0000 
    2129 000003c1 5605-         IMPYL     P,XT,@_TS_iq          ; |637| 
         000003c2 001A 
    2130 000003c3 5663-         QMPYL     ACC,XT,@_TS_iq        ; |637| 
         000003c4 001A 
    2131 000003c5 56AC          LSL64     ACC:P,#13             ; |637| 
    2132 000003c6 1E48          MOVL      *-SP[8],ACC           ; |637| 
    2133                      .dwpsn  "mainfeedforward.c",638,2
    2134 000003c7 0646          MOVL      ACC,*-SP[6]           ; |638| 
    2135 000003c8 0710-         ADDL      ACC,@_pll_ph_iq       ; |638| 
    2136 000003c9 0748          ADDL      ACC,*-SP[8]           ; |638| 
    2137 000003ca 1E10-         MOVL      @_pll_ph_iq,ACC       ; |638| 
    2138                      .dwpsn  "mainfeedforward.c",640,9
    2139 000003cb 8F32          MOVL      XAR4,#3294195         ; |640| 
         000003cc 43F3 
    2140 000003cd A8A9          MOVL      ACC,XAR4              ; |640| 
    2141 000003ce 0F10-         CMPL      ACC,@_pll_ph_iq       ; |640| 
    2142 000003cf 6207          B         L26,GT                ; |640| 
    2143                      ; branchcc occurs ; |640| 
    2144 000003d0       L25:    
    2145 000003d0       DW$L$_PLL$2$B:
    2146                      .dwpsn  "mainfeedforward.c",642,3
    2147 000003d0 0610-         MOVL      ACC,@_pll_ph_iq       ; |642| 
    2148 000003d1 03A4          SUBL      ACC,XAR4
    2149 000003d2 1E10-         MOVL      @_pll_ph_iq,ACC       ; |642| 
TMS320C2000 COFF Assembler PC v4.1.0 Mon Dec 21 14:54:55 2009

Tools Copyright (c) 1996-2005 Texas Instruments Incorporated
C:\DOCUME~1\ADMINI~1\LOCALS~1\Temp\TI9922                            PAGE   47

    2150                      .dwpsn  "mainfeedforward.c",640,9
    2151 000003d3 A8A9          MOVL      ACC,XAR4              ; |640| 
    2152 000003d4 0F10-         CMPL      ACC,@_pll_ph_iq       ; |640| 
    2153 000003d5 65FB          B         L25,LEQ               ; |640| 
    2154                      ; branchcc occurs ; |640| 
    2155 000003d6       DW$L$_PLL$2$E:
    2156 000003d6       L26:    
    2157                      .dwpsn  "mainfeedforward.c",644,9
    2158 000003d6 0610-         MOVL      ACC,@_pll_ph_iq       ; |644| 
    2159 000003d7 6306          B         L28,GEQ               ; |644| 
    2160                      ; branchcc occurs ; |644| 
    2161 000003d8       L27:    
    2162 000003d8       DW$L$_PLL$4$B:
    2163                      .dwpsn  "mainfeedforward.c",646,3
    2164 000003d8 A8A9          MOVL      ACC,XAR4              ; |646| 
    2165 000003d9 0710-         ADDL      ACC,@_pll_ph_iq       ; |646| 
    2166 000003da 1E10-         MOVL      @_pll_ph_iq,ACC       ; |646| 
    2167                      .dwpsn  "mainfeedforward.c",644,9
    2168 000003db 0610-         MOVL      ACC,@_pll_ph_iq       ; |644| 
    2169 000003dc 64FC          B         L27,LT                ; |644| 
    2170                      ; branchcc occurs ; |644| 
    2171 000003dd       DW$L$_PLL$4$E:
    2172 000003dd       L28:    
    2173                      .dwpsn  "mainfeedforward.c",649,2
    2174 000003dd 0610-         MOVL      ACC,@_pll_ph_iq       ; |649| 
    2175 000003de 7640!         LCR       #__IQ19sin            ; |649| 
         000003df 0000 
    2176                      ; call occurs [#__IQ19sin] ; |649| 
    2177 000003e0 761F-         MOVW      DP,#_pll_sin_iq
         000003e1 0000 
    2178 000003e2 1E12-         MOVL      @_pll_sin_iq,ACC      ; |649| 
    2179                      .dwpsn  "mainfeedforward.c",650,2
    2180 000003e3 0610-         MOVL      ACC,@_pll_ph_iq       ; |650| 
    2181 000003e4 7640!         LCR       #__IQ19cos            ; |650| 
         000003e5 0000 
    2182                      ; call occurs [#__IQ19cos] ; |650| 
    2183 000003e6 761F-         MOVW      DP,#_pll_cos_iq
         000003e7 0000 
    2184 000003e8 1E1C-         MOVL      @_pll_cos_iq,ACC      ; |650| 
    2185                      .dwpsn  "mainfeedforward.c",654,2
    2186                      .dwpsn  "mainfeedforward.c",655,1
    2187 000003e9 FE88          SUBB      SP,#8
    2188                      .dwcfa  0x1d, -2
    2189 000003ea 0006          LRETR
    2190                      ; return occurs
    2191              
    2192              DW$129  .dwtag  DW_TAG_loop
    2193                      .dwattr DW$129, DW_AT_name("C:\DOCUME~1\ADMINI~1\LOCALS~1\Temp\TI9922:L27:1:1261378494")
    2194                      .dwattr DW$129, DW_AT_begin_file("mainfeedforward.c")
    2195                      .dwattr DW$129, DW_AT_begin_line(0x284)
    2196                      .dwattr DW$129, DW_AT_end_line(0x287)
    2197              DW$130  .dwtag  DW_TAG_loop_range
    2198                      .dwattr DW$130, DW_AT_low_pc(DW$L$_PLL$4$B)
    2199                      .dwattr DW$130, DW_AT_high_pc(DW$L$_PLL$4$E)
    2200                      .dwendtag DW$129
TMS320C2000 COFF Assembler PC v4.1.0 Mon Dec 21 14:54:55 2009

Tools Copyright (c) 1996-2005 Texas Instruments Incorporated
C:\DOCUME~1\ADMINI~1\LOCALS~1\Temp\TI9922                            PAGE   48

    2201              
    2202              
    2203              DW$131  .dwtag  DW_TAG_loop
    2204                      .dwattr DW$131, DW_AT_name("C:\DOCUME~1\ADMINI~1\LOCALS~1\Temp\TI9922:L25:1:1261378494")
    2205                      .dwattr DW$131, DW_AT_begin_file("mainfeedforward.c")
    2206                      .dwattr DW$131, DW_AT_begin_line(0x280)
    2207                      .dwattr DW$131, DW_AT_end_line(0x283)
    2208              DW$132  .dwtag  DW_TAG_loop_range
    2209                      .dwattr DW$132, DW_AT_low_pc(DW$L$_PLL$2$B)
    2210                      .dwattr DW$132, DW_AT_high_pc(DW$L$_PLL$2$E)
    2211                      .dwendtag DW$131
    2212              
    2213                      .dwattr DW$124, DW_AT_end_file("mainfeedforward.c")
    2214                      .dwattr DW$124, DW_AT_end_line(0x28f)
    2215                      .dwattr DW$124, DW_AT_end_column(0x01)
    2216                      .dwendentry
    2217                      .dwendtag DW$124
    2218              
    2219 000003eb               .sect   ".text"
    2220                      .global _EPWMcalculate
    2221              
    2222              DW$133  .dwtag  DW_TAG_subprogram, DW_AT_name("EPWMcalculate"), DW_AT_symbol_name("_EPWMcalculate")
    2223                      .dwattr DW$133, DW_AT_low_pc(_EPWMcalculate)
    2224                      .dwattr DW$133, DW_AT_high_pc(0x00)
    2225                      .dwattr DW$133, DW_AT_begin_file("mainfeedforward.c")
    2226                      .dwattr DW$133, DW_AT_begin_line(0x2a2)
    2227                      .dwattr DW$133, DW_AT_begin_column(0x06)
    2228                      .dwpsn  "mainfeedforward.c",675,1
    2229              
    2230                      .dwfde DW$CIE
    2231              
    2232              ;***************************************************************
    2233              ;* FNAME: _EPWMcalculate                FR SIZE:   4           *
    2234              ;*                                                             *
    2235              ;* FUNCTION ENVIRONMENT                                        *
    2236              ;*                                                             *
    2237              ;* FUNCTION PROPERTIES                                         *
    2238              ;*                            2 Parameter,  1 Auto,  0 SOE     *
    2239              ;***************************************************************
    2240              
    2241 000003eb       _EPWMcalculate:
    2242                      .dwcfa  0x1d, -2
    2243                      .dwcfa  0x1c, 26, 0
    2244                      .dwcfa  0x09, 40, 26
    2245 000003eb FE04          ADDB      SP,#4
    2246                      .dwcfa  0x1d, -6
    2247              DW$134  .dwtag  DW_TAG_variable, DW_AT_name("pwm_out_int"), DW_AT_symbol_name("_pwm_out_int")
    2248                      .dwattr DW$134, DW_AT_type(*DW$T$10)
    2249                      .dwattr DW$134, DW_AT_location[DW_OP_breg20 -3]
    2250                      .dwpsn  "mainfeedforward.c",682,2
    2251 000003ec 761F-         MOVW      DP,#_current_pwm_iq
         000003ed 0001 
    2252 000003ee 28AA          MOV       PH,#7
         000003ef 0007 
    2253 000003f0 28AB          MOV       PL,#39321
TMS320C2000 COFF Assembler PC v4.1.0 Mon Dec 21 14:54:55 2009

Tools Copyright (c) 1996-2005 Texas Instruments Incorporated
C:\DOCUME~1\ADMINI~1\LOCALS~1\Temp\TI9922                            PAGE   49

         000003f1 9999 
    2254 000003f2 0600-         MOVL      ACC,@_current_pwm_iq  ; |682| 
    2255 000003f3 5650          MINL      ACC,P                 ; |682| 
         000003f4 00AB 
    2256 000003f5 28AA          MOV       PH,#65528
         000003f6 FFF8 
    2257 000003f7 28AB          MOV       PL,#26215
         000003f8 6667 
    2258 000003f9 5661          MAXL      ACC,P                 ; |682| 
         000003fa 00AB 
    2259 000003fb 1E10-         MOVL      @_pwm_in_iq,ACC       ; |682| 
    2260                      .dwpsn  "mainfeedforward.c",683,2
    2261 000003fc 8F00          MOVL      XAR4,#1250            ; |683| 
         000003fd 04E2 
    2262 000003fe A842          MOVL      *-SP[2],XAR4          ; |683| 
    2263 000003ff 0610-         MOVL      ACC,@_pwm_in_iq       ; |683| 
    2264 00000400 7640!         LCR       #__IQ19mpyI32int      ; |683| 
         00000401 0000 
    2265                      ; call occurs [#__IQ19mpyI32int] ; |683| 
    2266 00000402 9643          MOV       *-SP[3],AL            ; |683| 
    2267                      .dwpsn  "mainfeedforward.c",684,2
    2268 00000403 08A9          ADD       AL,#1250              ; |684| 
         00000404 04E2 
    2269 00000405 761F-         MOVW      DP,#_UCMPA1
         00000406 0000 
    2270 00000407 9600-         MOV       @_UCMPA1,AL           ; |684| 
    2271                      .dwpsn  "mainfeedforward.c",685,2
    2272 00000408 9243          MOV       AL,*-SP[3]            ; |685| 
    2273 00000409 08A9          ADD       AL,#1250              ; |685| 
         0000040a 04E2 
    2274 0000040b 9603-         MOV       @_UCMPA2,AL           ; |685| 
    2275                      .dwpsn  "mainfeedforward.c",687,2
    2276 0000040c 9200-         MOV       AL,@_UCMPA1           ; |687| 
    2277 0000040d 761F!         MOVW      DP,#_EPwm1Regs+9
         0000040e 0000 
    2278 0000040f 9609!         MOV       @_EPwm1Regs+9,AL      ; |687| 
    2279                      .dwpsn  "mainfeedforward.c",688,2
    2280 00000410 761F-         MOVW      DP,#_UCMPA2
         00000411 0000 
    2281 00000412 9203-         MOV       AL,@_UCMPA2           ; |688| 
    2282 00000413 761F!         MOVW      DP,#_EPwm2Regs+9
         00000414 0000 
    2283 00000415 9609!         MOV       @_EPwm2Regs+9,AL      ; |688| 
    2284                      .dwpsn  "mainfeedforward.c",690,2
    2285                      .dwpsn  "mainfeedforward.c",691,1
    2286 00000416 FE84          SUBB      SP,#4
    2287                      .dwcfa  0x1d, -2
    2288 00000417 0006          LRETR
    2289                      ; return occurs
    2290                      .dwattr DW$133, DW_AT_end_file("mainfeedforward.c")
    2291                      .dwattr DW$133, DW_AT_end_line(0x2b3)
    2292                      .dwattr DW$133, DW_AT_end_column(0x01)
    2293                      .dwendentry
    2294                      .dwendtag DW$133
    2295              
TMS320C2000 COFF Assembler PC v4.1.0 Mon Dec 21 14:54:55 2009

Tools Copyright (c) 1996-2005 Texas Instruments Incorporated
C:\DOCUME~1\ADMINI~1\LOCALS~1\Temp\TI9922                            PAGE   50

    2296 00000418               .sect   ".text"
    2297                      .global _Feedbackcontrol
    2298              
    2299              DW$135  .dwtag  DW_TAG_subprogram, DW_AT_name("Feedbackcontrol"), DW_AT_symbol_name("_Feedbackcontrol")
    2300                      .dwattr DW$135, DW_AT_low_pc(_Feedbackcontrol)
    2301                      .dwattr DW$135, DW_AT_high_pc(0x00)
    2302                      .dwattr DW$135, DW_AT_begin_file("mainfeedforward.c")
    2303                      .dwattr DW$135, DW_AT_begin_line(0x2b6)
    2304                      .dwattr DW$135, DW_AT_begin_column(0x06)
    2305                      .dwpsn  "mainfeedforward.c",695,1
    2306              
    2307                      .dwfde DW$CIE
    2308              
    2309              ;***************************************************************
    2310              ;* FNAME: _Feedbackcontrol              FR SIZE:   2           *
    2311              ;*                                                             *
    2312              ;* FUNCTION ENVIRONMENT                                        *
    2313              ;*                                                             *
    2314              ;* FUNCTION PROPERTIES                                         *
    2315              ;*                            2 Parameter,  0 Auto,  0 SOE     *
    2316              ;***************************************************************
    2317              
    2318 00000418       _Feedbackcontrol:
    2319                      .dwcfa  0x1d, -2
    2320                      .dwcfa  0x1c, 26, 0
    2321                      .dwcfa  0x09, 40, 26
    2322 00000418 FE02          ADDB      SP,#2
    2323                      .dwcfa  0x1d, -4
    2324                      .dwpsn  "mainfeedforward.c",696,2
    2325 00000419 3B02   setc OVM
    2326                      .dwpsn  "mainfeedforward.c",698,2
    2327 0000041a 761F-         MOVW      DP,#_con_sinref_iq
         0000041b 0001 
    2328 0000041c 8704-         MOVL      XT,@_con_sinref_iq    ; |698| 
    2329 0000041d FF69          SPM       #0
    2330 0000041e 761F-         MOVW      DP,#_Current_ampl_iq
         0000041f 0000 
    2331 00000420 5663-         QMPYL     ACC,XT,@_Current_ampl_iq ; |698| 
         00000421 0034 
    2332 00000422 5605-         IMPYL     P,XT,@_Current_ampl_iq ; |698| 
         00000423 0034 
    2333 00000424 56AC          LSL64     ACC:P,#13             ; |698| 
    2334 00000425 1E3C-         MOVL      @_current_ref_iq,ACC  ; |698| 
    2335                      .dwpsn  "mainfeedforward.c",700,5
    2336 00000426 761F-         MOVW      DP,#_ADC_out_iq+2
         00000427 0001 
    2337 00000428 8734-         MOVL      XT,@_ADC_out_iq+2     ; |700| 
    2338 00000429 761F-         MOVW      DP,#_iL_rate_iq
         0000042a 0000 
    2339 0000042b 5663-         QMPYL     ACC,XT,@_iL_rate_iq   ; |700| 
         0000042c 0024 
    2340 0000042d 5605-         IMPYL     P,XT,@_iL_rate_iq     ; |700| 
         0000042e 0024 
    2341 0000042f 56AC          LSL64     ACC:P,#13             ; |700| 
    2342 00000430 1E20-         MOVL      @_current_iL_iq,ACC   ; |700| 
TMS320C2000 COFF Assembler PC v4.1.0 Mon Dec 21 14:54:55 2009

Tools Copyright (c) 1996-2005 Texas Instruments Incorporated
C:\DOCUME~1\ADMINI~1\LOCALS~1\Temp\TI9922                            PAGE   51

    2343                      .dwpsn  "mainfeedforward.c",702,5
    2344 00000431 761F-         MOVW      DP,#_ADC_out_iq+8
         00000432 0001 
    2345 00000433 873A-         MOVL      XT,@_ADC_out_iq+8     ; |702| 
    2346 00000434 761F-         MOVW      DP,#_iG_rate_iq
         00000435 0000 
    2347 00000436 5663-         QMPYL     ACC,XT,@_iG_rate_iq   ; |702| 
         00000437 0026 
    2348 00000438 5605-         IMPYL     P,XT,@_iG_rate_iq     ; |702| 
         00000439 0026 
    2349 0000043a 56AC          LSL64     ACC:P,#13             ; |702| 
    2350 0000043b 1E22-         MOVL      @_current_iG_iq,ACC   ; |702| 
    2351                      .dwpsn  "mainfeedforward.c",704,5
    2352 0000043c 063C-         MOVL      ACC,@_current_ref_iq  ; |704| 
    2353 0000043d 0320-         SUBL      ACC,@_current_iL_iq   ; |704| 
    2354 0000043e 0322-         SUBL      ACC,@_current_iG_iq   ; |704| 
    2355 0000043f 761F-         MOVW      DP,#_current_error_iq
         00000440 0001 
    2356 00000441 1E02-         MOVL      @_current_error_iq,ACC ; |704| 
    2357                      .dwpsn  "mainfeedforward.c",710,5
    2358 00000442 761F-         MOVW      DP,#_kp_iq
         00000443 0000 
    2359 00000444 8738-         MOVL      XT,@_kp_iq            ; |710| 
    2360 00000445 761F-         MOVW      DP,#_current_error_iq
         00000446 0001 
    2361 00000447 5663-         QMPYL     ACC,XT,@_current_error_iq ; |710| 
         00000448 0002 
    2362 00000449 5605-         IMPYL     P,XT,@_current_error_iq ; |710| 
         0000044a 0002 
    2363 0000044b 761F-         MOVW      DP,#_current_error_PI_iq
         0000044c 0000 
    2364 0000044d 56AC          LSL64     ACC:P,#13             ; |710| 
    2365 0000044e 1E32-         MOVL      @_current_error_PI_iq,ACC ; |710| 
    2366                      .dwpsn  "mainfeedforward.c",712,2
    2367 0000044f 873C-         MOVL      XT,@_current_ref_iq   ; |712| 
    2368 00000450 5663-         QMPYL     ACC,XT,@_ref_ff_rate_iq ; |712| 
         00000451 002E 
    2369 00000452 5605-         IMPYL     P,XT,@_ref_ff_rate_iq ; |712| 
         00000453 002E 
    2370 00000454 56AC          LSL64     ACC:P,#13             ; |712| 
    2371 00000455 1E28-         MOVL      @_current_ref_ff_iq,ACC ; |712| 
    2372                      .dwpsn  "mainfeedforward.c",714,2
    2373 00000456 761F-         MOVW      DP,#_ADC_out_iq
         00000457 0001 
    2374 00000458 8732-         MOVL      XT,@_ADC_out_iq       ; |714| 
    2375 00000459 761F-         MOVW      DP,#_Vg_ff_rate_iq
         0000045a 0000 
    2376 0000045b 5663-         QMPYL     ACC,XT,@_Vg_ff_rate_iq ; |714| 
         0000045c 002C 
    2377 0000045d 5605-         IMPYL     P,XT,@_Vg_ff_rate_iq  ; |714| 
         0000045e 002C 
    2378 0000045f 56AC          LSL64     ACC:P,#13             ; |714| 
    2379 00000460 1E2A-         MOVL      @_current_Vg_ff_iq,ACC ; |714| 
    2380                      .dwpsn  "mainfeedforward.c",716,2
    2381 00000461 0628-         MOVL      ACC,@_current_ref_ff_iq ; |716| 
TMS320C2000 COFF Assembler PC v4.1.0 Mon Dec 21 14:54:55 2009

Tools Copyright (c) 1996-2005 Texas Instruments Incorporated
C:\DOCUME~1\ADMINI~1\LOCALS~1\Temp\TI9922                            PAGE   52

    2382 00000462 0732-         ADDL      ACC,@_current_error_PI_iq ; |716| 
    2383 00000463 072A-         ADDL      ACC,@_current_Vg_ff_iq ; |716| 
    2384 00000464 761F-         MOVW      DP,#_current_pwm_iq
         00000465 0001 
    2385 00000466 1E00-         MOVL      @_current_pwm_iq,ACC  ; |716| 
    2386                      .dwpsn  "mainfeedforward.c",718,2
    2387 00000467 0636-         MOVL      ACC,@_ADC_out_iq+4    ; |718| 
    2388 00000468 1E42          MOVL      *-SP[2],ACC           ; |718| 
    2389 00000469 0600-         MOVL      ACC,@_current_pwm_iq  ; |718| 
    2390 0000046a 7640!         LCR       #__IQ19div            ; |718| 
         0000046b 0000 
    2391                      ; call occurs [#__IQ19div] ; |718| 
    2392 0000046c 761F-         MOVW      DP,#_current_duty_iq
         0000046d 0000 
    2393 0000046e 1E30-         MOVL      @_current_duty_iq,ACC ; |718| 
    2394                      .dwpsn  "mainfeedforward.c",722,2
    2395 0000046f 2902   clrc OVM
    2396                      .dwpsn  "mainfeedforward.c",724,1
    2397 00000470 FE82          SUBB      SP,#2
    2398                      .dwcfa  0x1d, -2
    2399 00000471 FF69          SPM       #0
    2400 00000472 0006          LRETR
    2401                      ; return occurs
    2402                      .dwattr DW$135, DW_AT_end_file("mainfeedforward.c")
    2403                      .dwattr DW$135, DW_AT_end_line(0x2d4)
    2404                      .dwattr DW$135, DW_AT_end_column(0x01)
    2405                      .dwendentry
    2406                      .dwendtag DW$135
    2407              
    2408              ;***************************************************************
    2409              ;* FLOATING-POINT CONSTANTS                                    *
    2410              ;***************************************************************
    2411 00000000               .sect   ".econst"
    2412                      .align  2
    2413 00000000 0000  FL1:    .xldouble       5.24288000000000000000e+05
         00000001 0000 
         00000002 0000 
         00000003 4120 
    2414              ;***************************************************************
    2415              ;* UNDEFINED EXTERNAL REFERENCES                               *
    2416              ;***************************************************************
    2417                      .global _InitPieVectTable
    2418                      .global _InitPieCtrl
    2419                      .global _InitSysCtrl
    2420                      .global __IQ19cos
    2421                      .global __IQ19mpyI32int
    2422                      .global __IQ19div
    2423                      .global __IQ19sin
    2424                      .global _PieCtrlRegs
    2425                      .global _AdcRegs
    2426                      .global _SysCtrlRegs
    2427                      .global _GpioDataRegs
    2428                      .global _EPwm2Regs
    2429                      .global _EPwm6Regs
    2430                      .global _EPwm1Regs
TMS320C2000 COFF Assembler PC v4.1.0 Mon Dec 21 14:54:55 2009

Tools Copyright (c) 1996-2005 Texas Instruments Incorporated
C:\DOCUME~1\ADMINI~1\LOCALS~1\Temp\TI9922                            PAGE   53

    2431                      .global _GpioCtrlRegs
    2432                      .global _PieVectTable
    2433                      .global FD$$MPY
    2434                      .global L$$TOFD
    2435                      .global FD$$TOL
    2436              
    2437              ;***************************************************************
    2438              ;* TYPE INFORMATION                                            *
    2439              ;***************************************************************
    2440              
    2441              DW$T$121        .dwtag  DW_TAG_subroutine_type
    2442                      .dwattr DW$T$121, DW_AT_language(DW_LANG_C)
    2443              DW$T$10 .dwtag  DW_TAG_base_type, DW_AT_name("int")
    2444                      .dwattr DW$T$10, DW_AT_encoding(DW_ATE_signed)
    2445                      .dwattr DW$T$10, DW_AT_byte_size(0x01)
    2446              DW$136  .dwtag  DW_TAG_far_type
    2447                      .dwattr DW$136, DW_AT_type(*DW$T$11)
    2448              DW$T$145        .dwtag  DW_TAG_volatile_type
    2449                      .dwattr DW$T$145, DW_AT_type(*DW$136)
    2450              DW$T$12 .dwtag  DW_TAG_base_type, DW_AT_name("long")
    2451                      .dwattr DW$T$12, DW_AT_encoding(DW_ATE_signed)
    2452                      .dwattr DW$T$12, DW_AT_byte_size(0x02)
    2453              
    2454              DW$T$147        .dwtag  DW_TAG_subroutine_type, DW_AT_type(*DW$T$12)
    2455                      .dwattr DW$T$147, DW_AT_language(DW_LANG_C)
    2456              DW$137  .dwtag  DW_TAG_formal_parameter, DW_AT_type(*DW$T$12)
    2457              DW$138  .dwtag  DW_TAG_formal_parameter, DW_AT_type(*DW$T$12)
    2458              DW$139  .dwtag  DW_TAG_formal_parameter, DW_AT_type(*DW$T$10)
    2459                      .dwendtag DW$T$147
    2460              
    2461              
    2462              DW$T$148        .dwtag  DW_TAG_subroutine_type, DW_AT_type(*DW$T$12)
    2463                      .dwattr DW$T$148, DW_AT_language(DW_LANG_C)
    2464              DW$140  .dwtag  DW_TAG_formal_parameter, DW_AT_type(*DW$T$12)
    2465              DW$141  .dwtag  DW_TAG_formal_parameter, DW_AT_type(*DW$T$12)
    2466              DW$142  .dwtag  DW_TAG_formal_parameter, DW_AT_type(*DW$T$12)
    2467                      .dwendtag DW$T$148
    2468              
    2469              
    2470              DW$T$149        .dwtag  DW_TAG_subroutine_type, DW_AT_type(*DW$T$12)
    2471                      .dwattr DW$T$149, DW_AT_language(DW_LANG_C)
    2472              DW$143  .dwtag  DW_TAG_formal_parameter, DW_AT_type(*DW$T$12)
    2473              DW$144  .dwtag  DW_TAG_formal_parameter, DW_AT_type(*DW$T$12)
    2474                      .dwendtag DW$T$149
    2475              
    2476              
    2477              DW$T$151        .dwtag  DW_TAG_subroutine_type, DW_AT_type(*DW$T$12)
    2478                      .dwattr DW$T$151, DW_AT_language(DW_LANG_C)
    2479              DW$145  .dwtag  DW_TAG_formal_parameter, DW_AT_type(*DW$T$12)
    2480                      .dwendtag DW$T$151
    2481              
    2482              DW$T$153        .dwtag  DW_TAG_typedef, DW_AT_name("_iq"), DW_AT_type(*DW$T$12)
    2483                      .dwattr DW$T$153, DW_AT_language(DW_LANG_C)
    2484              
    2485              DW$T$154        .dwtag  DW_TAG_array_type, DW_AT_type(*DW$T$153)
TMS320C2000 COFF Assembler PC v4.1.0 Mon Dec 21 14:54:55 2009

Tools Copyright (c) 1996-2005 Texas Instruments Incorporated
C:\DOCUME~1\ADMINI~1\LOCALS~1\Temp\TI9922                            PAGE   54

    2486                      .dwattr DW$T$154, DW_AT_language(DW_LANG_C)
    2487                      .dwattr DW$T$154, DW_AT_byte_size(0x0c)
    2488              DW$146  .dwtag  DW_TAG_subrange_type
    2489                      .dwattr DW$146, DW_AT_upper_bound(0x05)
    2490                      .dwendtag DW$T$154
    2491              
    2492              
    2493              DW$T$155        .dwtag  DW_TAG_array_type, DW_AT_type(*DW$T$153)
    2494                      .dwattr DW$T$155, DW_AT_language(DW_LANG_C)
    2495                      .dwattr DW$T$155, DW_AT_byte_size(0x06)
    2496              DW$147  .dwtag  DW_TAG_subrange_type
    2497                      .dwattr DW$147, DW_AT_upper_bound(0x02)
    2498                      .dwendtag DW$T$155
    2499              
    2500              
    2501              DW$T$156        .dwtag  DW_TAG_array_type, DW_AT_type(*DW$T$153)
    2502                      .dwattr DW$T$156, DW_AT_language(DW_LANG_C)
    2503                      .dwattr DW$T$156, DW_AT_byte_size(0x04)
    2504              DW$148  .dwtag  DW_TAG_subrange_type
    2505                      .dwattr DW$148, DW_AT_upper_bound(0x01)
    2506                      .dwendtag DW$T$156
    2507              
    2508              
    2509              DW$T$159        .dwtag  DW_TAG_array_type, DW_AT_type(*DW$T$158)
    2510                      .dwattr DW$T$159, DW_AT_language(DW_LANG_C)
    2511                      .dwattr DW$T$159, DW_AT_byte_size(0x0c)
    2512              DW$149  .dwtag  DW_TAG_subrange_type
    2513                      .dwattr DW$149, DW_AT_upper_bound(0x05)
    2514                      .dwendtag DW$T$159
    2515              
    2516              DW$T$161        .dwtag  DW_TAG_typedef, DW_AT_name("_iq30"), DW_AT_type(*DW$T$12)
    2517                      .dwattr DW$T$161, DW_AT_language(DW_LANG_C)
    2518              DW$T$162        .dwtag  DW_TAG_typedef, DW_AT_name("_iq15"), DW_AT_type(*DW$T$12)
    2519                      .dwattr DW$T$162, DW_AT_language(DW_LANG_C)
    2520              DW$150  .dwtag  DW_TAG_far_type
    2521                      .dwattr DW$150, DW_AT_type(*DW$T$45)
    2522              DW$T$175        .dwtag  DW_TAG_volatile_type
    2523                      .dwattr DW$T$175, DW_AT_type(*DW$150)
    2524              DW$151  .dwtag  DW_TAG_far_type
    2525                      .dwattr DW$151, DW_AT_type(*DW$T$91)
    2526              DW$T$204        .dwtag  DW_TAG_volatile_type
    2527                      .dwattr DW$T$204, DW_AT_type(*DW$151)
    2528              DW$152  .dwtag  DW_TAG_far_type
    2529                      .dwattr DW$152, DW_AT_type(*DW$T$109)
    2530              DW$T$211        .dwtag  DW_TAG_volatile_type
    2531                      .dwattr DW$T$211, DW_AT_type(*DW$152)
    2532              DW$153  .dwtag  DW_TAG_far_type
    2533                      .dwattr DW$153, DW_AT_type(*DW$T$111)
    2534              DW$T$212        .dwtag  DW_TAG_volatile_type
    2535                      .dwattr DW$T$212, DW_AT_type(*DW$153)
    2536              DW$154  .dwtag  DW_TAG_far_type
    2537                      .dwattr DW$154, DW_AT_type(*DW$T$120)
    2538              DW$T$216        .dwtag  DW_TAG_volatile_type
    2539                      .dwattr DW$T$216, DW_AT_type(*DW$154)
    2540              
TMS320C2000 COFF Assembler PC v4.1.0 Mon Dec 21 14:54:55 2009

Tools Copyright (c) 1996-2005 Texas Instruments Incorporated
C:\DOCUME~1\ADMINI~1\LOCALS~1\Temp\TI9922                            PAGE   55

    2541              DW$T$124        .dwtag  DW_TAG_structure_type
    2542                      .dwattr DW$T$124, DW_AT_name("PIE_VECT_TABLE")
    2543                      .dwattr DW$T$124, DW_AT_byte_size(0x100)
    2544              DW$155  .dwtag  DW_TAG_member, DW_AT_type(*DW$T$123)
    2545                      .dwattr DW$155, DW_AT_name("PIE1_RESERVED"), DW_AT_symbol_name("_PIE1_RESERVED")
    2546                      .dwattr DW$155, DW_AT_data_member_location[DW_OP_plus_uconst 0x0]
    2547                      .dwattr DW$155, DW_AT_accessibility(DW_ACCESS_public)
    2548              DW$156  .dwtag  DW_TAG_member, DW_AT_type(*DW$T$123)
    2549                      .dwattr DW$156, DW_AT_name("PIE2_RESERVED"), DW_AT_symbol_name("_PIE2_RESERVED")
    2550                      .dwattr DW$156, DW_AT_data_member_location[DW_OP_plus_uconst 0x2]
    2551                      .dwattr DW$156, DW_AT_accessibility(DW_ACCESS_public)
    2552              DW$157  .dwtag  DW_TAG_member, DW_AT_type(*DW$T$123)
    2553                      .dwattr DW$157, DW_AT_name("PIE3_RESERVED"), DW_AT_symbol_name("_PIE3_RESERVED")
    2554                      .dwattr DW$157, DW_AT_data_member_location[DW_OP_plus_uconst 0x4]
    2555                      .dwattr DW$157, DW_AT_accessibility(DW_ACCESS_public)
    2556              DW$158  .dwtag  DW_TAG_member, DW_AT_type(*DW$T$123)
    2557                      .dwattr DW$158, DW_AT_name("PIE4_RESERVED"), DW_AT_symbol_name("_PIE4_RESERVED")
    2558                      .dwattr DW$158, DW_AT_data_member_location[DW_OP_plus_uconst 0x6]
    2559                      .dwattr DW$158, DW_AT_accessibility(DW_ACCESS_public)
    2560              DW$159  .dwtag  DW_TAG_member, DW_AT_type(*DW$T$123)
    2561                      .dwattr DW$159, DW_AT_name("PIE5_RESERVED"), DW_AT_symbol_name("_PIE5_RESERVED")
    2562                      .dwattr DW$159, DW_AT_data_member_location[DW_OP_plus_uconst 0x8]
    2563                      .dwattr DW$159, DW_AT_accessibility(DW_ACCESS_public)
    2564              DW$160  .dwtag  DW_TAG_member, DW_AT_type(*DW$T$123)
    2565                      .dwattr DW$160, DW_AT_name("PIE6_RESERVED"), DW_AT_symbol_name("_PIE6_RESERVED")
    2566                      .dwattr DW$160, DW_AT_data_member_location[DW_OP_plus_uconst 0xa]
    2567                      .dwattr DW$160, DW_AT_accessibility(DW_ACCESS_public)
    2568              DW$161  .dwtag  DW_TAG_member, DW_AT_type(*DW$T$123)
    2569                      .dwattr DW$161, DW_AT_name("PIE7_RESERVED"), DW_AT_symbol_name("_PIE7_RESERVED")
    2570                      .dwattr DW$161, DW_AT_data_member_location[DW_OP_plus_uconst 0xc]
    2571                      .dwattr DW$161, DW_AT_accessibility(DW_ACCESS_public)
    2572              DW$162  .dwtag  DW_TAG_member, DW_AT_type(*DW$T$123)
    2573                      .dwattr DW$162, DW_AT_name("PIE8_RESERVED"), DW_AT_symbol_name("_PIE8_RESERVED")
    2574                      .dwattr DW$162, DW_AT_data_member_location[DW_OP_plus_uconst 0xe]
    2575                      .dwattr DW$162, DW_AT_accessibility(DW_ACCESS_public)
    2576              DW$163  .dwtag  DW_TAG_member, DW_AT_type(*DW$T$123)
    2577                      .dwattr DW$163, DW_AT_name("PIE9_RESERVED"), DW_AT_symbol_name("_PIE9_RESERVED")
    2578                      .dwattr DW$163, DW_AT_data_member_location[DW_OP_plus_uconst 0x10]
    2579                      .dwattr DW$163, DW_AT_accessibility(DW_ACCESS_public)
    2580              DW$164  .dwtag  DW_TAG_member, DW_AT_type(*DW$T$123)
    2581                      .dwattr DW$164, DW_AT_name("PIE10_RESERVED"), DW_AT_symbol_name("_PIE10_RESERVED")
    2582                      .dwattr DW$164, DW_AT_data_member_location[DW_OP_plus_uconst 0x12]
    2583                      .dwattr DW$164, DW_AT_accessibility(DW_ACCESS_public)
    2584              DW$165  .dwtag  DW_TAG_member, DW_AT_type(*DW$T$123)
    2585                      .dwattr DW$165, DW_AT_name("PIE11_RESERVED"), DW_AT_symbol_name("_PIE11_RESERVED")
    2586                      .dwattr DW$165, DW_AT_data_member_location[DW_OP_plus_uconst 0x14]
    2587                      .dwattr DW$165, DW_AT_accessibility(DW_ACCESS_public)
    2588              DW$166  .dwtag  DW_TAG_member, DW_AT_type(*DW$T$123)
    2589                      .dwattr DW$166, DW_AT_name("PIE12_RESERVED"), DW_AT_symbol_name("_PIE12_RESERVED")
    2590                      .dwattr DW$166, DW_AT_data_member_location[DW_OP_plus_uconst 0x16]
    2591                      .dwattr DW$166, DW_AT_accessibility(DW_ACCESS_public)
    2592              DW$167  .dwtag  DW_TAG_member, DW_AT_type(*DW$T$123)
    2593                      .dwattr DW$167, DW_AT_name("PIE13_RESERVED"), DW_AT_symbol_name("_PIE13_RESERVED")
    2594                      .dwattr DW$167, DW_AT_data_member_location[DW_OP_plus_uconst 0x18]
    2595                      .dwattr DW$167, DW_AT_accessibility(DW_ACCESS_public)
TMS320C2000 COFF Assembler PC v4.1.0 Mon Dec 21 14:54:55 2009

Tools Copyright (c) 1996-2005 Texas Instruments Incorporated
C:\DOCUME~1\ADMINI~1\LOCALS~1\Temp\TI9922                            PAGE   56

    2596              DW$168  .dwtag  DW_TAG_member, DW_AT_type(*DW$T$123)
    2597                      .dwattr DW$168, DW_AT_name("XINT13"), DW_AT_symbol_name("_XINT13")
    2598                      .dwattr DW$168, DW_AT_data_member_location[DW_OP_plus_uconst 0x1a]
    2599                      .dwattr DW$168, DW_AT_accessibility(DW_ACCESS_public)
    2600              DW$169  .dwtag  DW_TAG_member, DW_AT_type(*DW$T$123)
    2601                      .dwattr DW$169, DW_AT_name("TINT2"), DW_AT_symbol_name("_TINT2")
    2602                      .dwattr DW$169, DW_AT_data_member_location[DW_OP_plus_uconst 0x1c]
    2603                      .dwattr DW$169, DW_AT_accessibility(DW_ACCESS_public)
    2604              DW$170  .dwtag  DW_TAG_member, DW_AT_type(*DW$T$123)
    2605                      .dwattr DW$170, DW_AT_name("DATALOG"), DW_AT_symbol_name("_DATALOG")
    2606                      .dwattr DW$170, DW_AT_data_member_location[DW_OP_plus_uconst 0x1e]
    2607                      .dwattr DW$170, DW_AT_accessibility(DW_ACCESS_public)
    2608              DW$171  .dwtag  DW_TAG_member, DW_AT_type(*DW$T$123)
    2609                      .dwattr DW$171, DW_AT_name("RTOSINT"), DW_AT_symbol_name("_RTOSINT")
    2610                      .dwattr DW$171, DW_AT_data_member_location[DW_OP_plus_uconst 0x20]
    2611                      .dwattr DW$171, DW_AT_accessibility(DW_ACCESS_public)
    2612              DW$172  .dwtag  DW_TAG_member, DW_AT_type(*DW$T$123)
    2613                      .dwattr DW$172, DW_AT_name("EMUINT"), DW_AT_symbol_name("_EMUINT")
    2614                      .dwattr DW$172, DW_AT_data_member_location[DW_OP_plus_uconst 0x22]
    2615                      .dwattr DW$172, DW_AT_accessibility(DW_ACCESS_public)
    2616              DW$173  .dwtag  DW_TAG_member, DW_AT_type(*DW$T$123)
    2617                      .dwattr DW$173, DW_AT_name("XNMI"), DW_AT_symbol_name("_XNMI")
    2618                      .dwattr DW$173, DW_AT_data_member_location[DW_OP_plus_uconst 0x24]
    2619                      .dwattr DW$173, DW_AT_accessibility(DW_ACCESS_public)
    2620              DW$174  .dwtag  DW_TAG_member, DW_AT_type(*DW$T$123)
    2621                      .dwattr DW$174, DW_AT_name("ILLEGAL"), DW_AT_symbol_name("_ILLEGAL")
    2622                      .dwattr DW$174, DW_AT_data_member_location[DW_OP_plus_uconst 0x26]
    2623                      .dwattr DW$174, DW_AT_accessibility(DW_ACCESS_public)
    2624              DW$175  .dwtag  DW_TAG_member, DW_AT_type(*DW$T$123)
    2625                      .dwattr DW$175, DW_AT_name("USER1"), DW_AT_symbol_name("_USER1")
    2626                      .dwattr DW$175, DW_AT_data_member_location[DW_OP_plus_uconst 0x28]
    2627                      .dwattr DW$175, DW_AT_accessibility(DW_ACCESS_public)
    2628              DW$176  .dwtag  DW_TAG_member, DW_AT_type(*DW$T$123)
    2629                      .dwattr DW$176, DW_AT_name("USER2"), DW_AT_symbol_name("_USER2")
    2630                      .dwattr DW$176, DW_AT_data_member_location[DW_OP_plus_uconst 0x2a]
    2631                      .dwattr DW$176, DW_AT_accessibility(DW_ACCESS_public)
    2632              DW$177  .dwtag  DW_TAG_member, DW_AT_type(*DW$T$123)
    2633                      .dwattr DW$177, DW_AT_name("USER3"), DW_AT_symbol_name("_USER3")
    2634                      .dwattr DW$177, DW_AT_data_member_location[DW_OP_plus_uconst 0x2c]
    2635                      .dwattr DW$177, DW_AT_accessibility(DW_ACCESS_public)
    2636              DW$178  .dwtag  DW_TAG_member, DW_AT_type(*DW$T$123)
    2637                      .dwattr DW$178, DW_AT_name("USER4"), DW_AT_symbol_name("_USER4")
    2638                      .dwattr DW$178, DW_AT_data_member_location[DW_OP_plus_uconst 0x2e]
    2639                      .dwattr DW$178, DW_AT_accessibility(DW_ACCESS_public)
    2640              DW$179  .dwtag  DW_TAG_member, DW_AT_type(*DW$T$123)
    2641                      .dwattr DW$179, DW_AT_name("USER5"), DW_AT_symbol_name("_USER5")
    2642                      .dwattr DW$179, DW_AT_data_member_location[DW_OP_plus_uconst 0x30]
    2643                      .dwattr DW$179, DW_AT_accessibility(DW_ACCESS_public)
    2644              DW$180  .dwtag  DW_TAG_member, DW_AT_type(*DW$T$123)
    2645                      .dwattr DW$180, DW_AT_name("USER6"), DW_AT_symbol_name("_USER6")
    2646                      .dwattr DW$180, DW_AT_data_member_location[DW_OP_plus_uconst 0x32]
    2647                      .dwattr DW$180, DW_AT_accessibility(DW_ACCESS_public)
    2648              DW$181  .dwtag  DW_TAG_member, DW_AT_type(*DW$T$123)
    2649                      .dwattr DW$181, DW_AT_name("USER7"), DW_AT_symbol_name("_USER7")
    2650                      .dwattr DW$181, DW_AT_data_member_location[DW_OP_plus_uconst 0x34]
TMS320C2000 COFF Assembler PC v4.1.0 Mon Dec 21 14:54:55 2009

Tools Copyright (c) 1996-2005 Texas Instruments Incorporated
C:\DOCUME~1\ADMINI~1\LOCALS~1\Temp\TI9922                            PAGE   57

    2651                      .dwattr DW$181, DW_AT_accessibility(DW_ACCESS_public)
    2652              DW$182  .dwtag  DW_TAG_member, DW_AT_type(*DW$T$123)
    2653                      .dwattr DW$182, DW_AT_name("USER8"), DW_AT_symbol_name("_USER8")
    2654                      .dwattr DW$182, DW_AT_data_member_location[DW_OP_plus_uconst 0x36]
    2655                      .dwattr DW$182, DW_AT_accessibility(DW_ACCESS_public)
    2656              DW$183  .dwtag  DW_TAG_member, DW_AT_type(*DW$T$123)
    2657                      .dwattr DW$183, DW_AT_name("USER9"), DW_AT_symbol_name("_USER9")
    2658                      .dwattr DW$183, DW_AT_data_member_location[DW_OP_plus_uconst 0x38]
    2659                      .dwattr DW$183, DW_AT_accessibility(DW_ACCESS_public)
    2660              DW$184  .dwtag  DW_TAG_member, DW_AT_type(*DW$T$123)
    2661                      .dwattr DW$184, DW_AT_name("USER10"), DW_AT_symbol_name("_USER10")
    2662                      .dwattr DW$184, DW_AT_data_member_location[DW_OP_plus_uconst 0x3a]
    2663                      .dwattr DW$184, DW_AT_accessibility(DW_ACCESS_public)
    2664              DW$185  .dwtag  DW_TAG_member, DW_AT_type(*DW$T$123)
    2665                      .dwattr DW$185, DW_AT_name("USER11"), DW_AT_symbol_name("_USER11")
    2666                      .dwattr DW$185, DW_AT_data_member_location[DW_OP_plus_uconst 0x3c]
    2667                      .dwattr DW$185, DW_AT_accessibility(DW_ACCESS_public)
    2668              DW$186  .dwtag  DW_TAG_member, DW_AT_type(*DW$T$123)
    2669                      .dwattr DW$186, DW_AT_name("USER12"), DW_AT_symbol_name("_USER12")
    2670                      .dwattr DW$186, DW_AT_data_member_location[DW_OP_plus_uconst 0x3e]
    2671                      .dwattr DW$186, DW_AT_accessibility(DW_ACCESS_public)
    2672              DW$187  .dwtag  DW_TAG_member, DW_AT_type(*DW$T$123)
    2673                      .dwattr DW$187, DW_AT_name("SEQ1INT"), DW_AT_symbol_name("_SEQ1INT")
    2674                      .dwattr DW$187, DW_AT_data_member_location[DW_OP_plus_uconst 0x40]
    2675                      .dwattr DW$187, DW_AT_accessibility(DW_ACCESS_public)
    2676              DW$188  .dwtag  DW_TAG_member, DW_AT_type(*DW$T$123)
    2677                      .dwattr DW$188, DW_AT_name("SEQ2INT"), DW_AT_symbol_name("_SEQ2INT")
    2678                      .dwattr DW$188, DW_AT_data_member_location[DW_OP_plus_uconst 0x42]
    2679                      .dwattr DW$188, DW_AT_accessibility(DW_ACCESS_public)
    2680              DW$189  .dwtag  DW_TAG_member, DW_AT_type(*DW$T$123)
    2681                      .dwattr DW$189, DW_AT_name("rsvd1_3"), DW_AT_symbol_name("_rsvd1_3")
    2682                      .dwattr DW$189, DW_AT_data_member_location[DW_OP_plus_uconst 0x44]
    2683                      .dwattr DW$189, DW_AT_accessibility(DW_ACCESS_public)
    2684              DW$190  .dwtag  DW_TAG_member, DW_AT_type(*DW$T$123)
    2685                      .dwattr DW$190, DW_AT_name("XINT1"), DW_AT_symbol_name("_XINT1")
    2686                      .dwattr DW$190, DW_AT_data_member_location[DW_OP_plus_uconst 0x46]
    2687                      .dwattr DW$190, DW_AT_accessibility(DW_ACCESS_public)
    2688              DW$191  .dwtag  DW_TAG_member, DW_AT_type(*DW$T$123)
    2689                      .dwattr DW$191, DW_AT_name("XINT2"), DW_AT_symbol_name("_XINT2")
    2690                      .dwattr DW$191, DW_AT_data_member_location[DW_OP_plus_uconst 0x48]
    2691                      .dwattr DW$191, DW_AT_accessibility(DW_ACCESS_public)
    2692              DW$192  .dwtag  DW_TAG_member, DW_AT_type(*DW$T$123)
    2693                      .dwattr DW$192, DW_AT_name("ADCINT"), DW_AT_symbol_name("_ADCINT")
    2694                      .dwattr DW$192, DW_AT_data_member_location[DW_OP_plus_uconst 0x4a]
    2695                      .dwattr DW$192, DW_AT_accessibility(DW_ACCESS_public)
    2696              DW$193  .dwtag  DW_TAG_member, DW_AT_type(*DW$T$123)
    2697                      .dwattr DW$193, DW_AT_name("TINT0"), DW_AT_symbol_name("_TINT0")
    2698                      .dwattr DW$193, DW_AT_data_member_location[DW_OP_plus_uconst 0x4c]
    2699                      .dwattr DW$193, DW_AT_accessibility(DW_ACCESS_public)
    2700              DW$194  .dwtag  DW_TAG_member, DW_AT_type(*DW$T$123)
    2701                      .dwattr DW$194, DW_AT_name("WAKEINT"), DW_AT_symbol_name("_WAKEINT")
    2702                      .dwattr DW$194, DW_AT_data_member_location[DW_OP_plus_uconst 0x4e]
    2703                      .dwattr DW$194, DW_AT_accessibility(DW_ACCESS_public)
    2704              DW$195  .dwtag  DW_TAG_member, DW_AT_type(*DW$T$123)
    2705                      .dwattr DW$195, DW_AT_name("EPWM1_TZINT"), DW_AT_symbol_name("_EPWM1_TZINT")
TMS320C2000 COFF Assembler PC v4.1.0 Mon Dec 21 14:54:55 2009

Tools Copyright (c) 1996-2005 Texas Instruments Incorporated
C:\DOCUME~1\ADMINI~1\LOCALS~1\Temp\TI9922                            PAGE   58

    2706                      .dwattr DW$195, DW_AT_data_member_location[DW_OP_plus_uconst 0x50]
    2707                      .dwattr DW$195, DW_AT_accessibility(DW_ACCESS_public)
    2708              DW$196  .dwtag  DW_TAG_member, DW_AT_type(*DW$T$123)
    2709                      .dwattr DW$196, DW_AT_name("EPWM2_TZINT"), DW_AT_symbol_name("_EPWM2_TZINT")
    2710                      .dwattr DW$196, DW_AT_data_member_location[DW_OP_plus_uconst 0x52]
    2711                      .dwattr DW$196, DW_AT_accessibility(DW_ACCESS_public)
    2712              DW$197  .dwtag  DW_TAG_member, DW_AT_type(*DW$T$123)
    2713                      .dwattr DW$197, DW_AT_name("EPWM3_TZINT"), DW_AT_symbol_name("_EPWM3_TZINT")
    2714                      .dwattr DW$197, DW_AT_data_member_location[DW_OP_plus_uconst 0x54]
    2715                      .dwattr DW$197, DW_AT_accessibility(DW_ACCESS_public)
    2716              DW$198  .dwtag  DW_TAG_member, DW_AT_type(*DW$T$123)
    2717                      .dwattr DW$198, DW_AT_name("EPWM4_TZINT"), DW_AT_symbol_name("_EPWM4_TZINT")
    2718                      .dwattr DW$198, DW_AT_data_member_location[DW_OP_plus_uconst 0x56]
    2719                      .dwattr DW$198, DW_AT_accessibility(DW_ACCESS_public)
    2720              DW$199  .dwtag  DW_TAG_member, DW_AT_type(*DW$T$123)
    2721                      .dwattr DW$199, DW_AT_name("EPWM5_TZINT"), DW_AT_symbol_name("_EPWM5_TZINT")
    2722                      .dwattr DW$199, DW_AT_data_member_location[DW_OP_plus_uconst 0x58]
    2723                      .dwattr DW$199, DW_AT_accessibility(DW_ACCESS_public)
    2724              DW$200  .dwtag  DW_TAG_member, DW_AT_type(*DW$T$123)
    2725                      .dwattr DW$200, DW_AT_name("EPWM6_TZINT"), DW_AT_symbol_name("_EPWM6_TZINT")
    2726                      .dwattr DW$200, DW_AT_data_member_location[DW_OP_plus_uconst 0x5a]
    2727                      .dwattr DW$200, DW_AT_accessibility(DW_ACCESS_public)
    2728              DW$201  .dwtag  DW_TAG_member, DW_AT_type(*DW$T$123)
    2729                      .dwattr DW$201, DW_AT_name("rsvd2_7"), DW_AT_symbol_name("_rsvd2_7")
    2730                      .dwattr DW$201, DW_AT_data_member_location[DW_OP_plus_uconst 0x5c]
    2731                      .dwattr DW$201, DW_AT_accessibility(DW_ACCESS_public)
    2732              DW$202  .dwtag  DW_TAG_member, DW_AT_type(*DW$T$123)
    2733                      .dwattr DW$202, DW_AT_name("rsvd2_8"), DW_AT_symbol_name("_rsvd2_8")
    2734                      .dwattr DW$202, DW_AT_data_member_location[DW_OP_plus_uconst 0x5e]
    2735                      .dwattr DW$202, DW_AT_accessibility(DW_ACCESS_public)
    2736              DW$203  .dwtag  DW_TAG_member, DW_AT_type(*DW$T$123)
    2737                      .dwattr DW$203, DW_AT_name("EPWM1_INT"), DW_AT_symbol_name("_EPWM1_INT")
    2738                      .dwattr DW$203, DW_AT_data_member_location[DW_OP_plus_uconst 0x60]
    2739                      .dwattr DW$203, DW_AT_accessibility(DW_ACCESS_public)
    2740              DW$204  .dwtag  DW_TAG_member, DW_AT_type(*DW$T$123)
    2741                      .dwattr DW$204, DW_AT_name("EPWM2_INT"), DW_AT_symbol_name("_EPWM2_INT")
    2742                      .dwattr DW$204, DW_AT_data_member_location[DW_OP_plus_uconst 0x62]
    2743                      .dwattr DW$204, DW_AT_accessibility(DW_ACCESS_public)
    2744              DW$205  .dwtag  DW_TAG_member, DW_AT_type(*DW$T$123)
    2745                      .dwattr DW$205, DW_AT_name("EPWM3_INT"), DW_AT_symbol_name("_EPWM3_INT")
    2746                      .dwattr DW$205, DW_AT_data_member_location[DW_OP_plus_uconst 0x64]
    2747                      .dwattr DW$205, DW_AT_accessibility(DW_ACCESS_public)
    2748              DW$206  .dwtag  DW_TAG_member, DW_AT_type(*DW$T$123)
    2749                      .dwattr DW$206, DW_AT_name("EPWM4_INT"), DW_AT_symbol_name("_EPWM4_INT")
    2750                      .dwattr DW$206, DW_AT_data_member_location[DW_OP_plus_uconst 0x66]
    2751                      .dwattr DW$206, DW_AT_accessibility(DW_ACCESS_public)
    2752              DW$207  .dwtag  DW_TAG_member, DW_AT_type(*DW$T$123)
    2753                      .dwattr DW$207, DW_AT_name("EPWM5_INT"), DW_AT_symbol_name("_EPWM5_INT")
    2754                      .dwattr DW$207, DW_AT_data_member_location[DW_OP_plus_uconst 0x68]
    2755                      .dwattr DW$207, DW_AT_accessibility(DW_ACCESS_public)
    2756              DW$208  .dwtag  DW_TAG_member, DW_AT_type(*DW$T$123)
    2757                      .dwattr DW$208, DW_AT_name("EPWM6_INT"), DW_AT_symbol_name("_EPWM6_INT")
    2758                      .dwattr DW$208, DW_AT_data_member_location[DW_OP_plus_uconst 0x6a]
    2759                      .dwattr DW$208, DW_AT_accessibility(DW_ACCESS_public)
    2760              DW$209  .dwtag  DW_TAG_member, DW_AT_type(*DW$T$123)
TMS320C2000 COFF Assembler PC v4.1.0 Mon Dec 21 14:54:55 2009

Tools Copyright (c) 1996-2005 Texas Instruments Incorporated
C:\DOCUME~1\ADMINI~1\LOCALS~1\Temp\TI9922                            PAGE   59

    2761                      .dwattr DW$209, DW_AT_name("rsvd3_7"), DW_AT_symbol_name("_rsvd3_7")
    2762                      .dwattr DW$209, DW_AT_data_member_location[DW_OP_plus_uconst 0x6c]
    2763                      .dwattr DW$209, DW_AT_accessibility(DW_ACCESS_public)
    2764              DW$210  .dwtag  DW_TAG_member, DW_AT_type(*DW$T$123)
    2765                      .dwattr DW$210, DW_AT_name("rsvd3_8"), DW_AT_symbol_name("_rsvd3_8")
    2766                      .dwattr DW$210, DW_AT_data_member_location[DW_OP_plus_uconst 0x6e]
    2767                      .dwattr DW$210, DW_AT_accessibility(DW_ACCESS_public)
    2768              DW$211  .dwtag  DW_TAG_member, DW_AT_type(*DW$T$123)
    2769                      .dwattr DW$211, DW_AT_name("ECAP1_INT"), DW_AT_symbol_name("_ECAP1_INT")
    2770                      .dwattr DW$211, DW_AT_data_member_location[DW_OP_plus_uconst 0x70]
    2771                      .dwattr DW$211, DW_AT_accessibility(DW_ACCESS_public)
    2772              DW$212  .dwtag  DW_TAG_member, DW_AT_type(*DW$T$123)
    2773                      .dwattr DW$212, DW_AT_name("ECAP2_INT"), DW_AT_symbol_name("_ECAP2_INT")
    2774                      .dwattr DW$212, DW_AT_data_member_location[DW_OP_plus_uconst 0x72]
    2775                      .dwattr DW$212, DW_AT_accessibility(DW_ACCESS_public)
    2776              DW$213  .dwtag  DW_TAG_member, DW_AT_type(*DW$T$123)
    2777                      .dwattr DW$213, DW_AT_name("ECAP3_INT"), DW_AT_symbol_name("_ECAP3_INT")
    2778                      .dwattr DW$213, DW_AT_data_member_location[DW_OP_plus_uconst 0x74]
    2779                      .dwattr DW$213, DW_AT_accessibility(DW_ACCESS_public)
    2780              DW$214  .dwtag  DW_TAG_member, DW_AT_type(*DW$T$123)
    2781                      .dwattr DW$214, DW_AT_name("ECAP4_INT"), DW_AT_symbol_name("_ECAP4_INT")
    2782                      .dwattr DW$214, DW_AT_data_member_location[DW_OP_plus_uconst 0x76]
    2783                      .dwattr DW$214, DW_AT_accessibility(DW_ACCESS_public)
    2784              DW$215  .dwtag  DW_TAG_member, DW_AT_type(*DW$T$123)
    2785                      .dwattr DW$215, DW_AT_name("rsvd4_5"), DW_AT_symbol_name("_rsvd4_5")
    2786                      .dwattr DW$215, DW_AT_data_member_location[DW_OP_plus_uconst 0x78]
    2787                      .dwattr DW$215, DW_AT_accessibility(DW_ACCESS_public)
    2788              DW$216  .dwtag  DW_TAG_member, DW_AT_type(*DW$T$123)
    2789                      .dwattr DW$216, DW_AT_name("rsvd4_6"), DW_AT_symbol_name("_rsvd4_6")
    2790                      .dwattr DW$216, DW_AT_data_member_location[DW_OP_plus_uconst 0x7a]
    2791                      .dwattr DW$216, DW_AT_accessibility(DW_ACCESS_public)
    2792              DW$217  .dwtag  DW_TAG_member, DW_AT_type(*DW$T$123)
    2793                      .dwattr DW$217, DW_AT_name("rsvd4_7"), DW_AT_symbol_name("_rsvd4_7")
    2794                      .dwattr DW$217, DW_AT_data_member_location[DW_OP_plus_uconst 0x7c]
    2795                      .dwattr DW$217, DW_AT_accessibility(DW_ACCESS_public)
    2796              DW$218  .dwtag  DW_TAG_member, DW_AT_type(*DW$T$123)
    2797                      .dwattr DW$218, DW_AT_name("rsvd4_8"), DW_AT_symbol_name("_rsvd4_8")
    2798                      .dwattr DW$218, DW_AT_data_member_location[DW_OP_plus_uconst 0x7e]
    2799                      .dwattr DW$218, DW_AT_accessibility(DW_ACCESS_public)
    2800              DW$219  .dwtag  DW_TAG_member, DW_AT_type(*DW$T$123)
    2801                      .dwattr DW$219, DW_AT_name("EQEP1_INT"), DW_AT_symbol_name("_EQEP1_INT")
    2802                      .dwattr DW$219, DW_AT_data_member_location[DW_OP_plus_uconst 0x80]
    2803                      .dwattr DW$219, DW_AT_accessibility(DW_ACCESS_public)
    2804              DW$220  .dwtag  DW_TAG_member, DW_AT_type(*DW$T$123)
    2805                      .dwattr DW$220, DW_AT_name("EQEP2_INT"), DW_AT_symbol_name("_EQEP2_INT")
    2806                      .dwattr DW$220, DW_AT_data_member_location[DW_OP_plus_uconst 0x82]
    2807                      .dwattr DW$220, DW_AT_accessibility(DW_ACCESS_public)
    2808              DW$221  .dwtag  DW_TAG_member, DW_AT_type(*DW$T$123)
    2809                      .dwattr DW$221, DW_AT_name("rsvd5_3"), DW_AT_symbol_name("_rsvd5_3")
    2810                      .dwattr DW$221, DW_AT_data_member_location[DW_OP_plus_uconst 0x84]
    2811                      .dwattr DW$221, DW_AT_accessibility(DW_ACCESS_public)
    2812              DW$222  .dwtag  DW_TAG_member, DW_AT_type(*DW$T$123)
    2813                      .dwattr DW$222, DW_AT_name("rsvd5_4"), DW_AT_symbol_name("_rsvd5_4")
    2814                      .dwattr DW$222, DW_AT_data_member_location[DW_OP_plus_uconst 0x86]
    2815                      .dwattr DW$222, DW_AT_accessibility(DW_ACCESS_public)
TMS320C2000 COFF Assembler PC v4.1.0 Mon Dec 21 14:54:55 2009

Tools Copyright (c) 1996-2005 Texas Instruments Incorporated
C:\DOCUME~1\ADMINI~1\LOCALS~1\Temp\TI9922                            PAGE   60

    2816              DW$223  .dwtag  DW_TAG_member, DW_AT_type(*DW$T$123)
    2817                      .dwattr DW$223, DW_AT_name("rsvd5_5"), DW_AT_symbol_name("_rsvd5_5")
    2818                      .dwattr DW$223, DW_AT_data_member_location[DW_OP_plus_uconst 0x88]
    2819                      .dwattr DW$223, DW_AT_accessibility(DW_ACCESS_public)
    2820              DW$224  .dwtag  DW_TAG_member, DW_AT_type(*DW$T$123)
    2821                      .dwattr DW$224, DW_AT_name("rsvd5_6"), DW_AT_symbol_name("_rsvd5_6")
    2822                      .dwattr DW$224, DW_AT_data_member_location[DW_OP_plus_uconst 0x8a]
    2823                      .dwattr DW$224, DW_AT_accessibility(DW_ACCESS_public)
    2824              DW$225  .dwtag  DW_TAG_member, DW_AT_type(*DW$T$123)
    2825                      .dwattr DW$225, DW_AT_name("rsvd5_7"), DW_AT_symbol_name("_rsvd5_7")
    2826                      .dwattr DW$225, DW_AT_data_member_location[DW_OP_plus_uconst 0x8c]
    2827                      .dwattr DW$225, DW_AT_accessibility(DW_ACCESS_public)
    2828              DW$226  .dwtag  DW_TAG_member, DW_AT_type(*DW$T$123)
    2829                      .dwattr DW$226, DW_AT_name("rsvd5_8"), DW_AT_symbol_name("_rsvd5_8")
    2830                      .dwattr DW$226, DW_AT_data_member_location[DW_OP_plus_uconst 0x8e]
    2831                      .dwattr DW$226, DW_AT_accessibility(DW_ACCESS_public)
    2832              DW$227  .dwtag  DW_TAG_member, DW_AT_type(*DW$T$123)
    2833                      .dwattr DW$227, DW_AT_name("SPIRXINTA"), DW_AT_symbol_name("_SPIRXINTA")
    2834                      .dwattr DW$227, DW_AT_data_member_location[DW_OP_plus_uconst 0x90]
    2835                      .dwattr DW$227, DW_AT_accessibility(DW_ACCESS_public)
    2836              DW$228  .dwtag  DW_TAG_member, DW_AT_type(*DW$T$123)
    2837                      .dwattr DW$228, DW_AT_name("SPITXINTA"), DW_AT_symbol_name("_SPITXINTA")
    2838                      .dwattr DW$228, DW_AT_data_member_location[DW_OP_plus_uconst 0x92]
    2839                      .dwattr DW$228, DW_AT_accessibility(DW_ACCESS_public)
    2840              DW$229  .dwtag  DW_TAG_member, DW_AT_type(*DW$T$123)
    2841                      .dwattr DW$229, DW_AT_name("SPIRXINTB"), DW_AT_symbol_name("_SPIRXINTB")
    2842                      .dwattr DW$229, DW_AT_data_member_location[DW_OP_plus_uconst 0x94]
    2843                      .dwattr DW$229, DW_AT_accessibility(DW_ACCESS_public)
    2844              DW$230  .dwtag  DW_TAG_member, DW_AT_type(*DW$T$123)
    2845                      .dwattr DW$230, DW_AT_name("SPITXINTB"), DW_AT_symbol_name("_SPITXINTB")
    2846                      .dwattr DW$230, DW_AT_data_member_location[DW_OP_plus_uconst 0x96]
    2847                      .dwattr DW$230, DW_AT_accessibility(DW_ACCESS_public)
    2848              DW$231  .dwtag  DW_TAG_member, DW_AT_type(*DW$T$123)
    2849                      .dwattr DW$231, DW_AT_name("SPIRXINTC"), DW_AT_symbol_name("_SPIRXINTC")
    2850                      .dwattr DW$231, DW_AT_data_member_location[DW_OP_plus_uconst 0x98]
    2851                      .dwattr DW$231, DW_AT_accessibility(DW_ACCESS_public)
    2852              DW$232  .dwtag  DW_TAG_member, DW_AT_type(*DW$T$123)
    2853                      .dwattr DW$232, DW_AT_name("SPITXINTC"), DW_AT_symbol_name("_SPITXINTC")
    2854                      .dwattr DW$232, DW_AT_data_member_location[DW_OP_plus_uconst 0x9a]
    2855                      .dwattr DW$232, DW_AT_accessibility(DW_ACCESS_public)
    2856              DW$233  .dwtag  DW_TAG_member, DW_AT_type(*DW$T$123)
    2857                      .dwattr DW$233, DW_AT_name("SPIRXINTD"), DW_AT_symbol_name("_SPIRXINTD")
    2858                      .dwattr DW$233, DW_AT_data_member_location[DW_OP_plus_uconst 0x9c]
    2859                      .dwattr DW$233, DW_AT_accessibility(DW_ACCESS_public)
    2860              DW$234  .dwtag  DW_TAG_member, DW_AT_type(*DW$T$123)
    2861                      .dwattr DW$234, DW_AT_name("SPITXINTD"), DW_AT_symbol_name("_SPITXINTD")
    2862                      .dwattr DW$234, DW_AT_data_member_location[DW_OP_plus_uconst 0x9e]
    2863                      .dwattr DW$234, DW_AT_accessibility(DW_ACCESS_public)
    2864              DW$235  .dwtag  DW_TAG_member, DW_AT_type(*DW$T$123)
    2865                      .dwattr DW$235, DW_AT_name("rsvd7_1"), DW_AT_symbol_name("_rsvd7_1")
    2866                      .dwattr DW$235, DW_AT_data_member_location[DW_OP_plus_uconst 0xa0]
    2867                      .dwattr DW$235, DW_AT_accessibility(DW_ACCESS_public)
    2868              DW$236  .dwtag  DW_TAG_member, DW_AT_type(*DW$T$123)
    2869                      .dwattr DW$236, DW_AT_name("rsvd7_2"), DW_AT_symbol_name("_rsvd7_2")
    2870                      .dwattr DW$236, DW_AT_data_member_location[DW_OP_plus_uconst 0xa2]
TMS320C2000 COFF Assembler PC v4.1.0 Mon Dec 21 14:54:55 2009

Tools Copyright (c) 1996-2005 Texas Instruments Incorporated
C:\DOCUME~1\ADMINI~1\LOCALS~1\Temp\TI9922                            PAGE   61

    2871                      .dwattr DW$236, DW_AT_accessibility(DW_ACCESS_public)
    2872              DW$237  .dwtag  DW_TAG_member, DW_AT_type(*DW$T$123)
    2873                      .dwattr DW$237, DW_AT_name("rsvd7_3"), DW_AT_symbol_name("_rsvd7_3")
    2874                      .dwattr DW$237, DW_AT_data_member_location[DW_OP_plus_uconst 0xa4]
    2875                      .dwattr DW$237, DW_AT_accessibility(DW_ACCESS_public)
    2876              DW$238  .dwtag  DW_TAG_member, DW_AT_type(*DW$T$123)
    2877                      .dwattr DW$238, DW_AT_name("rsvd7_4"), DW_AT_symbol_name("_rsvd7_4")
    2878                      .dwattr DW$238, DW_AT_data_member_location[DW_OP_plus_uconst 0xa6]
    2879                      .dwattr DW$238, DW_AT_accessibility(DW_ACCESS_public)
    2880              DW$239  .dwtag  DW_TAG_member, DW_AT_type(*DW$T$123)
    2881                      .dwattr DW$239, DW_AT_name("rsvd7_5"), DW_AT_symbol_name("_rsvd7_5")
    2882                      .dwattr DW$239, DW_AT_data_member_location[DW_OP_plus_uconst 0xa8]
    2883                      .dwattr DW$239, DW_AT_accessibility(DW_ACCESS_public)
    2884              DW$240  .dwtag  DW_TAG_member, DW_AT_type(*DW$T$123)
    2885                      .dwattr DW$240, DW_AT_name("rsvd7_6"), DW_AT_symbol_name("_rsvd7_6")
    2886                      .dwattr DW$240, DW_AT_data_member_location[DW_OP_plus_uconst 0xaa]
    2887                      .dwattr DW$240, DW_AT_accessibility(DW_ACCESS_public)
    2888              DW$241  .dwtag  DW_TAG_member, DW_AT_type(*DW$T$123)
    2889                      .dwattr DW$241, DW_AT_name("rsvd7_7"), DW_AT_symbol_name("_rsvd7_7")
    2890                      .dwattr DW$241, DW_AT_data_member_location[DW_OP_plus_uconst 0xac]
    2891                      .dwattr DW$241, DW_AT_accessibility(DW_ACCESS_public)
    2892              DW$242  .dwtag  DW_TAG_member, DW_AT_type(*DW$T$123)
    2893                      .dwattr DW$242, DW_AT_name("rsvd7_8"), DW_AT_symbol_name("_rsvd7_8")
    2894                      .dwattr DW$242, DW_AT_data_member_location[DW_OP_plus_uconst 0xae]
    2895                      .dwattr DW$242, DW_AT_accessibility(DW_ACCESS_public)
    2896              DW$243  .dwtag  DW_TAG_member, DW_AT_type(*DW$T$123)
    2897                      .dwattr DW$243, DW_AT_name("I2CINT1A"), DW_AT_symbol_name("_I2CINT1A")
    2898                      .dwattr DW$243, DW_AT_data_member_location[DW_OP_plus_uconst 0xb0]
    2899                      .dwattr DW$243, DW_AT_accessibility(DW_ACCESS_public)
    2900              DW$244  .dwtag  DW_TAG_member, DW_AT_type(*DW$T$123)
    2901                      .dwattr DW$244, DW_AT_name("I2CINT2A"), DW_AT_symbol_name("_I2CINT2A")
    2902                      .dwattr DW$244, DW_AT_data_member_location[DW_OP_plus_uconst 0xb2]
    2903                      .dwattr DW$244, DW_AT_accessibility(DW_ACCESS_public)
    2904              DW$245  .dwtag  DW_TAG_member, DW_AT_type(*DW$T$123)
    2905                      .dwattr DW$245, DW_AT_name("rsvd8_3"), DW_AT_symbol_name("_rsvd8_3")
    2906                      .dwattr DW$245, DW_AT_data_member_location[DW_OP_plus_uconst 0xb4]
    2907                      .dwattr DW$245, DW_AT_accessibility(DW_ACCESS_public)
    2908              DW$246  .dwtag  DW_TAG_member, DW_AT_type(*DW$T$123)
    2909                      .dwattr DW$246, DW_AT_name("rsvd8_4"), DW_AT_symbol_name("_rsvd8_4")
    2910                      .dwattr DW$246, DW_AT_data_member_location[DW_OP_plus_uconst 0xb6]
    2911                      .dwattr DW$246, DW_AT_accessibility(DW_ACCESS_public)
    2912              DW$247  .dwtag  DW_TAG_member, DW_AT_type(*DW$T$123)
    2913                      .dwattr DW$247, DW_AT_name("rsvd8_5"), DW_AT_symbol_name("_rsvd8_5")
    2914                      .dwattr DW$247, DW_AT_data_member_location[DW_OP_plus_uconst 0xb8]
    2915                      .dwattr DW$247, DW_AT_accessibility(DW_ACCESS_public)
    2916              DW$248  .dwtag  DW_TAG_member, DW_AT_type(*DW$T$123)
    2917                      .dwattr DW$248, DW_AT_name("rsvd8_6"), DW_AT_symbol_name("_rsvd8_6")
    2918                      .dwattr DW$248, DW_AT_data_member_location[DW_OP_plus_uconst 0xba]
    2919                      .dwattr DW$248, DW_AT_accessibility(DW_ACCESS_public)
    2920              DW$249  .dwtag  DW_TAG_member, DW_AT_type(*DW$T$123)
    2921                      .dwattr DW$249, DW_AT_name("rsvd8_7"), DW_AT_symbol_name("_rsvd8_7")
    2922                      .dwattr DW$249, DW_AT_data_member_location[DW_OP_plus_uconst 0xbc]
    2923                      .dwattr DW$249, DW_AT_accessibility(DW_ACCESS_public)
    2924              DW$250  .dwtag  DW_TAG_member, DW_AT_type(*DW$T$123)
    2925                      .dwattr DW$250, DW_AT_name("rsvd8_8"), DW_AT_symbol_name("_rsvd8_8")
TMS320C2000 COFF Assembler PC v4.1.0 Mon Dec 21 14:54:55 2009

Tools Copyright (c) 1996-2005 Texas Instruments Incorporated
C:\DOCUME~1\ADMINI~1\LOCALS~1\Temp\TI9922                            PAGE   62

    2926                      .dwattr DW$250, DW_AT_data_member_location[DW_OP_plus_uconst 0xbe]
    2927                      .dwattr DW$250, DW_AT_accessibility(DW_ACCESS_public)
    2928              DW$251  .dwtag  DW_TAG_member, DW_AT_type(*DW$T$123)
    2929                      .dwattr DW$251, DW_AT_name("SCIRXINTA"), DW_AT_symbol_name("_SCIRXINTA")
    2930                      .dwattr DW$251, DW_AT_data_member_location[DW_OP_plus_uconst 0xc0]
    2931                      .dwattr DW$251, DW_AT_accessibility(DW_ACCESS_public)
    2932              DW$252  .dwtag  DW_TAG_member, DW_AT_type(*DW$T$123)
    2933                      .dwattr DW$252, DW_AT_name("SCITXINTA"), DW_AT_symbol_name("_SCITXINTA")
    2934                      .dwattr DW$252, DW_AT_data_member_location[DW_OP_plus_uconst 0xc2]
    2935                      .dwattr DW$252, DW_AT_accessibility(DW_ACCESS_public)
    2936              DW$253  .dwtag  DW_TAG_member, DW_AT_type(*DW$T$123)
    2937                      .dwattr DW$253, DW_AT_name("SCIRXINTB"), DW_AT_symbol_name("_SCIRXINTB")
    2938                      .dwattr DW$253, DW_AT_data_member_location[DW_OP_plus_uconst 0xc4]
    2939                      .dwattr DW$253, DW_AT_accessibility(DW_ACCESS_public)
    2940              DW$254  .dwtag  DW_TAG_member, DW_AT_type(*DW$T$123)
    2941                      .dwattr DW$254, DW_AT_name("SCITXINTB"), DW_AT_symbol_name("_SCITXINTB")
    2942                      .dwattr DW$254, DW_AT_data_member_location[DW_OP_plus_uconst 0xc6]
    2943                      .dwattr DW$254, DW_AT_accessibility(DW_ACCESS_public)
    2944              DW$255  .dwtag  DW_TAG_member, DW_AT_type(*DW$T$123)
    2945                      .dwattr DW$255, DW_AT_name("ECAN0INTA"), DW_AT_symbol_name("_ECAN0INTA")
    2946                      .dwattr DW$255, DW_AT_data_member_location[DW_OP_plus_uconst 0xc8]
    2947                      .dwattr DW$255, DW_AT_accessibility(DW_ACCESS_public)
    2948              DW$256  .dwtag  DW_TAG_member, DW_AT_type(*DW$T$123)
    2949                      .dwattr DW$256, DW_AT_name("ECAN1INTA"), DW_AT_symbol_name("_ECAN1INTA")
    2950                      .dwattr DW$256, DW_AT_data_member_location[DW_OP_plus_uconst 0xca]
    2951                      .dwattr DW$256, DW_AT_accessibility(DW_ACCESS_public)
    2952              DW$257  .dwtag  DW_TAG_member, DW_AT_type(*DW$T$123)
    2953                      .dwattr DW$257, DW_AT_name("ECAN0INTB"), DW_AT_symbol_name("_ECAN0INTB")
    2954                      .dwattr DW$257, DW_AT_data_member_location[DW_OP_plus_uconst 0xcc]
    2955                      .dwattr DW$257, DW_AT_accessibility(DW_ACCESS_public)
    2956              DW$258  .dwtag  DW_TAG_member, DW_AT_type(*DW$T$123)
    2957                      .dwattr DW$258, DW_AT_name("ECAN1INTB"), DW_AT_symbol_name("_ECAN1INTB")
    2958                      .dwattr DW$258, DW_AT_data_member_location[DW_OP_plus_uconst 0xce]
    2959                      .dwattr DW$258, DW_AT_accessibility(DW_ACCESS_public)
    2960              DW$259  .dwtag  DW_TAG_member, DW_AT_type(*DW$T$123)
    2961                      .dwattr DW$259, DW_AT_name("rsvd10_1"), DW_AT_symbol_name("_rsvd10_1")
    2962                      .dwattr DW$259, DW_AT_data_member_location[DW_OP_plus_uconst 0xd0]
    2963                      .dwattr DW$259, DW_AT_accessibility(DW_ACCESS_public)
    2964              DW$260  .dwtag  DW_TAG_member, DW_AT_type(*DW$T$123)
    2965                      .dwattr DW$260, DW_AT_name("rsvd10_2"), DW_AT_symbol_name("_rsvd10_2")
    2966                      .dwattr DW$260, DW_AT_data_member_location[DW_OP_plus_uconst 0xd2]
    2967                      .dwattr DW$260, DW_AT_accessibility(DW_ACCESS_public)
    2968              DW$261  .dwtag  DW_TAG_member, DW_AT_type(*DW$T$123)
    2969                      .dwattr DW$261, DW_AT_name("rsvd10_3"), DW_AT_symbol_name("_rsvd10_3")
    2970                      .dwattr DW$261, DW_AT_data_member_location[DW_OP_plus_uconst 0xd4]
    2971                      .dwattr DW$261, DW_AT_accessibility(DW_ACCESS_public)
    2972              DW$262  .dwtag  DW_TAG_member, DW_AT_type(*DW$T$123)
    2973                      .dwattr DW$262, DW_AT_name("rsvd10_4"), DW_AT_symbol_name("_rsvd10_4")
    2974                      .dwattr DW$262, DW_AT_data_member_location[DW_OP_plus_uconst 0xd6]
    2975                      .dwattr DW$262, DW_AT_accessibility(DW_ACCESS_public)
    2976              DW$263  .dwtag  DW_TAG_member, DW_AT_type(*DW$T$123)
    2977                      .dwattr DW$263, DW_AT_name("rsvd10_5"), DW_AT_symbol_name("_rsvd10_5")
    2978                      .dwattr DW$263, DW_AT_data_member_location[DW_OP_plus_uconst 0xd8]
    2979                      .dwattr DW$263, DW_AT_accessibility(DW_ACCESS_public)
    2980              DW$264  .dwtag  DW_TAG_member, DW_AT_type(*DW$T$123)
TMS320C2000 COFF Assembler PC v4.1.0 Mon Dec 21 14:54:55 2009

Tools Copyright (c) 1996-2005 Texas Instruments Incorporated
C:\DOCUME~1\ADMINI~1\LOCALS~1\Temp\TI9922                            PAGE   63

    2981                      .dwattr DW$264, DW_AT_name("rsvd10_6"), DW_AT_symbol_name("_rsvd10_6")
    2982                      .dwattr DW$264, DW_AT_data_member_location[DW_OP_plus_uconst 0xda]
    2983                      .dwattr DW$264, DW_AT_accessibility(DW_ACCESS_public)
    2984              DW$265  .dwtag  DW_TAG_member, DW_AT_type(*DW$T$123)
    2985                      .dwattr DW$265, DW_AT_name("rsvd10_7"), DW_AT_symbol_name("_rsvd10_7")
    2986                      .dwattr DW$265, DW_AT_data_member_location[DW_OP_plus_uconst 0xdc]
    2987                      .dwattr DW$265, DW_AT_accessibility(DW_ACCESS_public)
    2988              DW$266  .dwtag  DW_TAG_member, DW_AT_type(*DW$T$123)
    2989                      .dwattr DW$266, DW_AT_name("rsvd10_8"), DW_AT_symbol_name("_rsvd10_8")
    2990                      .dwattr DW$266, DW_AT_data_member_location[DW_OP_plus_uconst 0xde]
    2991                      .dwattr DW$266, DW_AT_accessibility(DW_ACCESS_public)
    2992              DW$267  .dwtag  DW_TAG_member, DW_AT_type(*DW$T$123)
    2993                      .dwattr DW$267, DW_AT_name("rsvd11_1"), DW_AT_symbol_name("_rsvd11_1")
    2994                      .dwattr DW$267, DW_AT_data_member_location[DW_OP_plus_uconst 0xe0]
    2995                      .dwattr DW$267, DW_AT_accessibility(DW_ACCESS_public)
    2996              DW$268  .dwtag  DW_TAG_member, DW_AT_type(*DW$T$123)
    2997                      .dwattr DW$268, DW_AT_name("rsvd11_2"), DW_AT_symbol_name("_rsvd11_2")
    2998                      .dwattr DW$268, DW_AT_data_member_location[DW_OP_plus_uconst 0xe2]
    2999                      .dwattr DW$268, DW_AT_accessibility(DW_ACCESS_public)
    3000              DW$269  .dwtag  DW_TAG_member, DW_AT_type(*DW$T$123)
    3001                      .dwattr DW$269, DW_AT_name("rsvd11_3"), DW_AT_symbol_name("_rsvd11_3")
    3002                      .dwattr DW$269, DW_AT_data_member_location[DW_OP_plus_uconst 0xe4]
    3003                      .dwattr DW$269, DW_AT_accessibility(DW_ACCESS_public)
    3004              DW$270  .dwtag  DW_TAG_member, DW_AT_type(*DW$T$123)
    3005                      .dwattr DW$270, DW_AT_name("rsvd11_4"), DW_AT_symbol_name("_rsvd11_4")
    3006                      .dwattr DW$270, DW_AT_data_member_location[DW_OP_plus_uconst 0xe6]
    3007                      .dwattr DW$270, DW_AT_accessibility(DW_ACCESS_public)
    3008              DW$271  .dwtag  DW_TAG_member, DW_AT_type(*DW$T$123)
    3009                      .dwattr DW$271, DW_AT_name("rsvd11_5"), DW_AT_symbol_name("_rsvd11_5")
    3010                      .dwattr DW$271, DW_AT_data_member_location[DW_OP_plus_uconst 0xe8]
    3011                      .dwattr DW$271, DW_AT_accessibility(DW_ACCESS_public)
    3012              DW$272  .dwtag  DW_TAG_member, DW_AT_type(*DW$T$123)
    3013                      .dwattr DW$272, DW_AT_name("rsvd11_6"), DW_AT_symbol_name("_rsvd11_6")
    3014                      .dwattr DW$272, DW_AT_data_member_location[DW_OP_plus_uconst 0xea]
    3015                      .dwattr DW$272, DW_AT_accessibility(DW_ACCESS_public)
    3016              DW$273  .dwtag  DW_TAG_member, DW_AT_type(*DW$T$123)
    3017                      .dwattr DW$273, DW_AT_name("rsvd11_7"), DW_AT_symbol_name("_rsvd11_7")
    3018                      .dwattr DW$273, DW_AT_data_member_location[DW_OP_plus_uconst 0xec]
    3019                      .dwattr DW$273, DW_AT_accessibility(DW_ACCESS_public)
    3020              DW$274  .dwtag  DW_TAG_member, DW_AT_type(*DW$T$123)
    3021                      .dwattr DW$274, DW_AT_name("rsvd11_8"), DW_AT_symbol_name("_rsvd11_8")
    3022                      .dwattr DW$274, DW_AT_data_member_location[DW_OP_plus_uconst 0xee]
    3023                      .dwattr DW$274, DW_AT_accessibility(DW_ACCESS_public)
    3024              DW$275  .dwtag  DW_TAG_member, DW_AT_type(*DW$T$123)
    3025                      .dwattr DW$275, DW_AT_name("rsvd12_1"), DW_AT_symbol_name("_rsvd12_1")
    3026                      .dwattr DW$275, DW_AT_data_member_location[DW_OP_plus_uconst 0xf0]
    3027                      .dwattr DW$275, DW_AT_accessibility(DW_ACCESS_public)
    3028              DW$276  .dwtag  DW_TAG_member, DW_AT_type(*DW$T$123)
    3029                      .dwattr DW$276, DW_AT_name("rsvd12_2"), DW_AT_symbol_name("_rsvd12_2")
    3030                      .dwattr DW$276, DW_AT_data_member_location[DW_OP_plus_uconst 0xf2]
    3031                      .dwattr DW$276, DW_AT_accessibility(DW_ACCESS_public)
    3032              DW$277  .dwtag  DW_TAG_member, DW_AT_type(*DW$T$123)
    3033                      .dwattr DW$277, DW_AT_name("rsvd12_3"), DW_AT_symbol_name("_rsvd12_3")
    3034                      .dwattr DW$277, DW_AT_data_member_location[DW_OP_plus_uconst 0xf4]
    3035                      .dwattr DW$277, DW_AT_accessibility(DW_ACCESS_public)
TMS320C2000 COFF Assembler PC v4.1.0 Mon Dec 21 14:54:55 2009

Tools Copyright (c) 1996-2005 Texas Instruments Incorporated
C:\DOCUME~1\ADMINI~1\LOCALS~1\Temp\TI9922                            PAGE   64

    3036              DW$278  .dwtag  DW_TAG_member, DW_AT_type(*DW$T$123)
    3037                      .dwattr DW$278, DW_AT_name("rsvd12_4"), DW_AT_symbol_name("_rsvd12_4")
    3038                      .dwattr DW$278, DW_AT_data_member_location[DW_OP_plus_uconst 0xf6]
    3039                      .dwattr DW$278, DW_AT_accessibility(DW_ACCESS_public)
    3040              DW$279  .dwtag  DW_TAG_member, DW_AT_type(*DW$T$123)
    3041                      .dwattr DW$279, DW_AT_name("rsvd12_5"), DW_AT_symbol_name("_rsvd12_5")
    3042                      .dwattr DW$279, DW_AT_data_member_location[DW_OP_plus_uconst 0xf8]
    3043                      .dwattr DW$279, DW_AT_accessibility(DW_ACCESS_public)
    3044              DW$280  .dwtag  DW_TAG_member, DW_AT_type(*DW$T$123)
    3045                      .dwattr DW$280, DW_AT_name("rsvd12_6"), DW_AT_symbol_name("_rsvd12_6")
    3046                      .dwattr DW$280, DW_AT_data_member_location[DW_OP_plus_uconst 0xfa]
    3047                      .dwattr DW$280, DW_AT_accessibility(DW_ACCESS_public)
    3048              DW$281  .dwtag  DW_TAG_member, DW_AT_type(*DW$T$123)
    3049                      .dwattr DW$281, DW_AT_name("rsvd12_7"), DW_AT_symbol_name("_rsvd12_7")
    3050                      .dwattr DW$281, DW_AT_data_member_location[DW_OP_plus_uconst 0xfc]
    3051                      .dwattr DW$281, DW_AT_accessibility(DW_ACCESS_public)
    3052              DW$282  .dwtag  DW_TAG_member, DW_AT_type(*DW$T$123)
    3053                      .dwattr DW$282, DW_AT_name("rsvd12_8"), DW_AT_symbol_name("_rsvd12_8")
    3054                      .dwattr DW$282, DW_AT_data_member_location[DW_OP_plus_uconst 0xfe]
    3055                      .dwattr DW$282, DW_AT_accessibility(DW_ACCESS_public)
    3056                      .dwendtag DW$T$124
    3057              
    3058              DW$283  .dwtag  DW_TAG_far_type
    3059                      .dwattr DW$283, DW_AT_type(*DW$T$144)
    3060              DW$T$219        .dwtag  DW_TAG_volatile_type
    3061                      .dwattr DW$T$219, DW_AT_type(*DW$283)
    3062              DW$T$123        .dwtag  DW_TAG_typedef, DW_AT_name("PINT"), DW_AT_type(*DW$T$122)
    3063                      .dwattr DW$T$123, DW_AT_language(DW_LANG_C)
    3064              DW$T$11 .dwtag  DW_TAG_base_type, DW_AT_name("unsigned int")
    3065                      .dwattr DW$T$11, DW_AT_encoding(DW_ATE_unsigned)
    3066                      .dwattr DW$T$11, DW_AT_byte_size(0x01)
    3067              DW$T$158        .dwtag  DW_TAG_typedef, DW_AT_name("_iq28"), DW_AT_type(*DW$T$12)
    3068                      .dwattr DW$T$158, DW_AT_language(DW_LANG_C)
    3069              
    3070              DW$T$45 .dwtag  DW_TAG_structure_type
    3071                      .dwattr DW$T$45, DW_AT_name("ADC_REGS")
    3072                      .dwattr DW$T$45, DW_AT_byte_size(0x1e)
    3073              DW$284  .dwtag  DW_TAG_member, DW_AT_type(*DW$T$21)
    3074                      .dwattr DW$284, DW_AT_name("ADCTRL1"), DW_AT_symbol_name("_ADCTRL1")
    3075                      .dwattr DW$284, DW_AT_data_member_location[DW_OP_plus_uconst 0x0]
    3076                      .dwattr DW$284, DW_AT_accessibility(DW_ACCESS_public)
    3077              DW$285  .dwtag  DW_TAG_member, DW_AT_type(*DW$T$23)
    3078                      .dwattr DW$285, DW_AT_name("ADCTRL2"), DW_AT_symbol_name("_ADCTRL2")
    3079                      .dwattr DW$285, DW_AT_data_member_location[DW_OP_plus_uconst 0x1]
    3080                      .dwattr DW$285, DW_AT_accessibility(DW_ACCESS_public)
    3081              DW$286  .dwtag  DW_TAG_member, DW_AT_type(*DW$T$25)
    3082                      .dwattr DW$286, DW_AT_name("ADCMAXCONV"), DW_AT_symbol_name("_ADCMAXCONV")
    3083                      .dwattr DW$286, DW_AT_data_member_location[DW_OP_plus_uconst 0x2]
    3084                      .dwattr DW$286, DW_AT_accessibility(DW_ACCESS_public)
    3085              DW$287  .dwtag  DW_TAG_member, DW_AT_type(*DW$T$27)
    3086                      .dwattr DW$287, DW_AT_name("ADCCHSELSEQ1"), DW_AT_symbol_name("_ADCCHSELSEQ1")
    3087                      .dwattr DW$287, DW_AT_data_member_location[DW_OP_plus_uconst 0x3]
    3088                      .dwattr DW$287, DW_AT_accessibility(DW_ACCESS_public)
    3089              DW$288  .dwtag  DW_TAG_member, DW_AT_type(*DW$T$29)
    3090                      .dwattr DW$288, DW_AT_name("ADCCHSELSEQ2"), DW_AT_symbol_name("_ADCCHSELSEQ2")
TMS320C2000 COFF Assembler PC v4.1.0 Mon Dec 21 14:54:55 2009

Tools Copyright (c) 1996-2005 Texas Instruments Incorporated
C:\DOCUME~1\ADMINI~1\LOCALS~1\Temp\TI9922                            PAGE   65

    3091                      .dwattr DW$288, DW_AT_data_member_location[DW_OP_plus_uconst 0x4]
    3092                      .dwattr DW$288, DW_AT_accessibility(DW_ACCESS_public)
    3093              DW$289  .dwtag  DW_TAG_member, DW_AT_type(*DW$T$31)
    3094                      .dwattr DW$289, DW_AT_name("ADCCHSELSEQ3"), DW_AT_symbol_name("_ADCCHSELSEQ3")
    3095                      .dwattr DW$289, DW_AT_data_member_location[DW_OP_plus_uconst 0x5]
    3096                      .dwattr DW$289, DW_AT_accessibility(DW_ACCESS_public)
    3097              DW$290  .dwtag  DW_TAG_member, DW_AT_type(*DW$T$33)
    3098                      .dwattr DW$290, DW_AT_name("ADCCHSELSEQ4"), DW_AT_symbol_name("_ADCCHSELSEQ4")
    3099                      .dwattr DW$290, DW_AT_data_member_location[DW_OP_plus_uconst 0x6]
    3100                      .dwattr DW$290, DW_AT_accessibility(DW_ACCESS_public)
    3101              DW$291  .dwtag  DW_TAG_member, DW_AT_type(*DW$T$35)
    3102                      .dwattr DW$291, DW_AT_name("ADCASEQSR"), DW_AT_symbol_name("_ADCASEQSR")
    3103                      .dwattr DW$291, DW_AT_data_member_location[DW_OP_plus_uconst 0x7]
    3104                      .dwattr DW$291, DW_AT_accessibility(DW_ACCESS_public)
    3105              DW$292  .dwtag  DW_TAG_member, DW_AT_type(*DW$T$19)
    3106                      .dwattr DW$292, DW_AT_name("ADCRESULT0"), DW_AT_symbol_name("_ADCRESULT0")
    3107                      .dwattr DW$292, DW_AT_data_member_location[DW_OP_plus_uconst 0x8]
    3108                      .dwattr DW$292, DW_AT_accessibility(DW_ACCESS_public)
    3109              DW$293  .dwtag  DW_TAG_member, DW_AT_type(*DW$T$19)
    3110                      .dwattr DW$293, DW_AT_name("ADCRESULT1"), DW_AT_symbol_name("_ADCRESULT1")
    3111                      .dwattr DW$293, DW_AT_data_member_location[DW_OP_plus_uconst 0x9]
    3112                      .dwattr DW$293, DW_AT_accessibility(DW_ACCESS_public)
    3113              DW$294  .dwtag  DW_TAG_member, DW_AT_type(*DW$T$19)
    3114                      .dwattr DW$294, DW_AT_name("ADCRESULT2"), DW_AT_symbol_name("_ADCRESULT2")
    3115                      .dwattr DW$294, DW_AT_data_member_location[DW_OP_plus_uconst 0xa]
    3116                      .dwattr DW$294, DW_AT_accessibility(DW_ACCESS_public)
    3117              DW$295  .dwtag  DW_TAG_member, DW_AT_type(*DW$T$19)
    3118                      .dwattr DW$295, DW_AT_name("ADCRESULT3"), DW_AT_symbol_name("_ADCRESULT3")
    3119                      .dwattr DW$295, DW_AT_data_member_location[DW_OP_plus_uconst 0xb]
    3120                      .dwattr DW$295, DW_AT_accessibility(DW_ACCESS_public)
    3121              DW$296  .dwtag  DW_TAG_member, DW_AT_type(*DW$T$19)
    3122                      .dwattr DW$296, DW_AT_name("ADCRESULT4"), DW_AT_symbol_name("_ADCRESULT4")
    3123                      .dwattr DW$296, DW_AT_data_member_location[DW_OP_plus_uconst 0xc]
    3124                      .dwattr DW$296, DW_AT_accessibility(DW_ACCESS_public)
    3125              DW$297  .dwtag  DW_TAG_member, DW_AT_type(*DW$T$19)
    3126                      .dwattr DW$297, DW_AT_name("ADCRESULT5"), DW_AT_symbol_name("_ADCRESULT5")
    3127                      .dwattr DW$297, DW_AT_data_member_location[DW_OP_plus_uconst 0xd]
    3128                      .dwattr DW$297, DW_AT_accessibility(DW_ACCESS_public)
    3129              DW$298  .dwtag  DW_TAG_member, DW_AT_type(*DW$T$19)
    3130                      .dwattr DW$298, DW_AT_name("ADCRESULT6"), DW_AT_symbol_name("_ADCRESULT6")
    3131                      .dwattr DW$298, DW_AT_data_member_location[DW_OP_plus_uconst 0xe]
    3132                      .dwattr DW$298, DW_AT_accessibility(DW_ACCESS_public)
    3133              DW$299  .dwtag  DW_TAG_member, DW_AT_type(*DW$T$19)
    3134                      .dwattr DW$299, DW_AT_name("ADCRESULT7"), DW_AT_symbol_name("_ADCRESULT7")
    3135                      .dwattr DW$299, DW_AT_data_member_location[DW_OP_plus_uconst 0xf]
    3136                      .dwattr DW$299, DW_AT_accessibility(DW_ACCESS_public)
    3137              DW$300  .dwtag  DW_TAG_member, DW_AT_type(*DW$T$19)
    3138                      .dwattr DW$300, DW_AT_name("ADCRESULT8"), DW_AT_symbol_name("_ADCRESULT8")
    3139                      .dwattr DW$300, DW_AT_data_member_location[DW_OP_plus_uconst 0x10]
    3140                      .dwattr DW$300, DW_AT_accessibility(DW_ACCESS_public)
    3141              DW$301  .dwtag  DW_TAG_member, DW_AT_type(*DW$T$19)
    3142                      .dwattr DW$301, DW_AT_name("ADCRESULT9"), DW_AT_symbol_name("_ADCRESULT9")
    3143                      .dwattr DW$301, DW_AT_data_member_location[DW_OP_plus_uconst 0x11]
    3144                      .dwattr DW$301, DW_AT_accessibility(DW_ACCESS_public)
    3145              DW$302  .dwtag  DW_TAG_member, DW_AT_type(*DW$T$19)
TMS320C2000 COFF Assembler PC v4.1.0 Mon Dec 21 14:54:55 2009

Tools Copyright (c) 1996-2005 Texas Instruments Incorporated
C:\DOCUME~1\ADMINI~1\LOCALS~1\Temp\TI9922                            PAGE   66

    3146                      .dwattr DW$302, DW_AT_name("ADCRESULT10"), DW_AT_symbol_name("_ADCRESULT10")
    3147                      .dwattr DW$302, DW_AT_data_member_location[DW_OP_plus_uconst 0x12]
    3148                      .dwattr DW$302, DW_AT_accessibility(DW_ACCESS_public)
    3149              DW$303  .dwtag  DW_TAG_member, DW_AT_type(*DW$T$19)
    3150                      .dwattr DW$303, DW_AT_name("ADCRESULT11"), DW_AT_symbol_name("_ADCRESULT11")
    3151                      .dwattr DW$303, DW_AT_data_member_location[DW_OP_plus_uconst 0x13]
    3152                      .dwattr DW$303, DW_AT_accessibility(DW_ACCESS_public)
    3153              DW$304  .dwtag  DW_TAG_member, DW_AT_type(*DW$T$19)
    3154                      .dwattr DW$304, DW_AT_name("ADCRESULT12"), DW_AT_symbol_name("_ADCRESULT12")
    3155                      .dwattr DW$304, DW_AT_data_member_location[DW_OP_plus_uconst 0x14]
    3156                      .dwattr DW$304, DW_AT_accessibility(DW_ACCESS_public)
    3157              DW$305  .dwtag  DW_TAG_member, DW_AT_type(*DW$T$19)
    3158                      .dwattr DW$305, DW_AT_name("ADCRESULT13"), DW_AT_symbol_name("_ADCRESULT13")
    3159                      .dwattr DW$305, DW_AT_data_member_location[DW_OP_plus_uconst 0x15]
    3160                      .dwattr DW$305, DW_AT_accessibility(DW_ACCESS_public)
    3161              DW$306  .dwtag  DW_TAG_member, DW_AT_type(*DW$T$19)
    3162                      .dwattr DW$306, DW_AT_name("ADCRESULT14"), DW_AT_symbol_name("_ADCRESULT14")
    3163                      .dwattr DW$306, DW_AT_data_member_location[DW_OP_plus_uconst 0x16]
    3164                      .dwattr DW$306, DW_AT_accessibility(DW_ACCESS_public)
    3165              DW$307  .dwtag  DW_TAG_member, DW_AT_type(*DW$T$19)
    3166                      .dwattr DW$307, DW_AT_name("ADCRESULT15"), DW_AT_symbol_name("_ADCRESULT15")
    3167                      .dwattr DW$307, DW_AT_data_member_location[DW_OP_plus_uconst 0x17]
    3168                      .dwattr DW$307, DW_AT_accessibility(DW_ACCESS_public)
    3169              DW$308  .dwtag  DW_TAG_member, DW_AT_type(*DW$T$37)
    3170                      .dwattr DW$308, DW_AT_name("ADCTRL3"), DW_AT_symbol_name("_ADCTRL3")
    3171                      .dwattr DW$308, DW_AT_data_member_location[DW_OP_plus_uconst 0x18]
    3172                      .dwattr DW$308, DW_AT_accessibility(DW_ACCESS_public)
    3173              DW$309  .dwtag  DW_TAG_member, DW_AT_type(*DW$T$39)
    3174                      .dwattr DW$309, DW_AT_name("ADCST"), DW_AT_symbol_name("_ADCST")
    3175                      .dwattr DW$309, DW_AT_data_member_location[DW_OP_plus_uconst 0x19]
    3176                      .dwattr DW$309, DW_AT_accessibility(DW_ACCESS_public)
    3177              DW$310  .dwtag  DW_TAG_member, DW_AT_type(*DW$T$19)
    3178                      .dwattr DW$310, DW_AT_name("rsvd1"), DW_AT_symbol_name("_rsvd1")
    3179                      .dwattr DW$310, DW_AT_data_member_location[DW_OP_plus_uconst 0x1a]
    3180                      .dwattr DW$310, DW_AT_accessibility(DW_ACCESS_public)
    3181              DW$311  .dwtag  DW_TAG_member, DW_AT_type(*DW$T$19)
    3182                      .dwattr DW$311, DW_AT_name("rsvd2"), DW_AT_symbol_name("_rsvd2")
    3183                      .dwattr DW$311, DW_AT_data_member_location[DW_OP_plus_uconst 0x1b]
    3184                      .dwattr DW$311, DW_AT_accessibility(DW_ACCESS_public)
    3185              DW$312  .dwtag  DW_TAG_member, DW_AT_type(*DW$T$41)
    3186                      .dwattr DW$312, DW_AT_name("ADCREFSEL"), DW_AT_symbol_name("_ADCREFSEL")
    3187                      .dwattr DW$312, DW_AT_data_member_location[DW_OP_plus_uconst 0x1c]
    3188                      .dwattr DW$312, DW_AT_accessibility(DW_ACCESS_public)
    3189              DW$313  .dwtag  DW_TAG_member, DW_AT_type(*DW$T$44)
    3190                      .dwattr DW$313, DW_AT_name("ADCOFFTRIM"), DW_AT_symbol_name("_ADCOFFTRIM")
    3191                      .dwattr DW$313, DW_AT_data_member_location[DW_OP_plus_uconst 0x1d]
    3192                      .dwattr DW$313, DW_AT_accessibility(DW_ACCESS_public)
    3193                      .dwendtag DW$T$45
    3194              
    3195              
    3196              DW$T$91 .dwtag  DW_TAG_structure_type
    3197                      .dwattr DW$T$91, DW_AT_name("EPWM_REGS")
    3198                      .dwattr DW$T$91, DW_AT_byte_size(0x22)
    3199              DW$314  .dwtag  DW_TAG_member, DW_AT_type(*DW$T$47)
    3200                      .dwattr DW$314, DW_AT_name("TBCTL"), DW_AT_symbol_name("_TBCTL")
TMS320C2000 COFF Assembler PC v4.1.0 Mon Dec 21 14:54:55 2009

Tools Copyright (c) 1996-2005 Texas Instruments Incorporated
C:\DOCUME~1\ADMINI~1\LOCALS~1\Temp\TI9922                            PAGE   67

    3201                      .dwattr DW$314, DW_AT_data_member_location[DW_OP_plus_uconst 0x0]
    3202                      .dwattr DW$314, DW_AT_accessibility(DW_ACCESS_public)
    3203              DW$315  .dwtag  DW_TAG_member, DW_AT_type(*DW$T$49)
    3204                      .dwattr DW$315, DW_AT_name("TBSTS"), DW_AT_symbol_name("_TBSTS")
    3205                      .dwattr DW$315, DW_AT_data_member_location[DW_OP_plus_uconst 0x1]
    3206                      .dwattr DW$315, DW_AT_accessibility(DW_ACCESS_public)
    3207              DW$316  .dwtag  DW_TAG_member, DW_AT_type(*DW$T$52)
    3208                      .dwattr DW$316, DW_AT_name("TBPHS"), DW_AT_symbol_name("_TBPHS")
    3209                      .dwattr DW$316, DW_AT_data_member_location[DW_OP_plus_uconst 0x2]
    3210                      .dwattr DW$316, DW_AT_accessibility(DW_ACCESS_public)
    3211              DW$317  .dwtag  DW_TAG_member, DW_AT_type(*DW$T$19)
    3212                      .dwattr DW$317, DW_AT_name("TBCTR"), DW_AT_symbol_name("_TBCTR")
    3213                      .dwattr DW$317, DW_AT_data_member_location[DW_OP_plus_uconst 0x4]
    3214                      .dwattr DW$317, DW_AT_accessibility(DW_ACCESS_public)
    3215              DW$318  .dwtag  DW_TAG_member, DW_AT_type(*DW$T$19)
    3216                      .dwattr DW$318, DW_AT_name("TBPRD"), DW_AT_symbol_name("_TBPRD")
    3217                      .dwattr DW$318, DW_AT_data_member_location[DW_OP_plus_uconst 0x5]
    3218                      .dwattr DW$318, DW_AT_accessibility(DW_ACCESS_public)
    3219              DW$319  .dwtag  DW_TAG_member, DW_AT_type(*DW$T$19)
    3220                      .dwattr DW$319, DW_AT_name("rsvd1"), DW_AT_symbol_name("_rsvd1")
    3221                      .dwattr DW$319, DW_AT_data_member_location[DW_OP_plus_uconst 0x6]
    3222                      .dwattr DW$319, DW_AT_accessibility(DW_ACCESS_public)
    3223              DW$320  .dwtag  DW_TAG_member, DW_AT_type(*DW$T$54)
    3224                      .dwattr DW$320, DW_AT_name("CMPCTL"), DW_AT_symbol_name("_CMPCTL")
    3225                      .dwattr DW$320, DW_AT_data_member_location[DW_OP_plus_uconst 0x7]
    3226                      .dwattr DW$320, DW_AT_accessibility(DW_ACCESS_public)
    3227              DW$321  .dwtag  DW_TAG_member, DW_AT_type(*DW$T$56)
    3228                      .dwattr DW$321, DW_AT_name("CMPA"), DW_AT_symbol_name("_CMPA")
    3229                      .dwattr DW$321, DW_AT_data_member_location[DW_OP_plus_uconst 0x8]
    3230                      .dwattr DW$321, DW_AT_accessibility(DW_ACCESS_public)
    3231              DW$322  .dwtag  DW_TAG_member, DW_AT_type(*DW$T$19)
    3232                      .dwattr DW$322, DW_AT_name("CMPB"), DW_AT_symbol_name("_CMPB")
    3233                      .dwattr DW$322, DW_AT_data_member_location[DW_OP_plus_uconst 0xa]
    3234                      .dwattr DW$322, DW_AT_accessibility(DW_ACCESS_public)
    3235              DW$323  .dwtag  DW_TAG_member, DW_AT_type(*DW$T$58)
    3236                      .dwattr DW$323, DW_AT_name("AQCTLA"), DW_AT_symbol_name("_AQCTLA")
    3237                      .dwattr DW$323, DW_AT_data_member_location[DW_OP_plus_uconst 0xb]
    3238                      .dwattr DW$323, DW_AT_accessibility(DW_ACCESS_public)
    3239              DW$324  .dwtag  DW_TAG_member, DW_AT_type(*DW$T$58)
    3240                      .dwattr DW$324, DW_AT_name("AQCTLB"), DW_AT_symbol_name("_AQCTLB")
    3241                      .dwattr DW$324, DW_AT_data_member_location[DW_OP_plus_uconst 0xc]
    3242                      .dwattr DW$324, DW_AT_accessibility(DW_ACCESS_public)
    3243              DW$325  .dwtag  DW_TAG_member, DW_AT_type(*DW$T$60)
    3244                      .dwattr DW$325, DW_AT_name("AQSFRC"), DW_AT_symbol_name("_AQSFRC")
    3245                      .dwattr DW$325, DW_AT_data_member_location[DW_OP_plus_uconst 0xd]
    3246                      .dwattr DW$325, DW_AT_accessibility(DW_ACCESS_public)
    3247              DW$326  .dwtag  DW_TAG_member, DW_AT_type(*DW$T$62)
    3248                      .dwattr DW$326, DW_AT_name("AQCSFRC"), DW_AT_symbol_name("_AQCSFRC")
    3249                      .dwattr DW$326, DW_AT_data_member_location[DW_OP_plus_uconst 0xe]
    3250                      .dwattr DW$326, DW_AT_accessibility(DW_ACCESS_public)
    3251              DW$327  .dwtag  DW_TAG_member, DW_AT_type(*DW$T$64)
    3252                      .dwattr DW$327, DW_AT_name("DBCTL"), DW_AT_symbol_name("_DBCTL")
    3253                      .dwattr DW$327, DW_AT_data_member_location[DW_OP_plus_uconst 0xf]
    3254                      .dwattr DW$327, DW_AT_accessibility(DW_ACCESS_public)
    3255              DW$328  .dwtag  DW_TAG_member, DW_AT_type(*DW$T$19)
TMS320C2000 COFF Assembler PC v4.1.0 Mon Dec 21 14:54:55 2009

Tools Copyright (c) 1996-2005 Texas Instruments Incorporated
C:\DOCUME~1\ADMINI~1\LOCALS~1\Temp\TI9922                            PAGE   68

    3256                      .dwattr DW$328, DW_AT_name("DBRED"), DW_AT_symbol_name("_DBRED")
    3257                      .dwattr DW$328, DW_AT_data_member_location[DW_OP_plus_uconst 0x10]
    3258                      .dwattr DW$328, DW_AT_accessibility(DW_ACCESS_public)
    3259              DW$329  .dwtag  DW_TAG_member, DW_AT_type(*DW$T$19)
    3260                      .dwattr DW$329, DW_AT_name("DBFED"), DW_AT_symbol_name("_DBFED")
    3261                      .dwattr DW$329, DW_AT_data_member_location[DW_OP_plus_uconst 0x11]
    3262                      .dwattr DW$329, DW_AT_accessibility(DW_ACCESS_public)
    3263              DW$330  .dwtag  DW_TAG_member, DW_AT_type(*DW$T$66)
    3264                      .dwattr DW$330, DW_AT_name("TZSEL"), DW_AT_symbol_name("_TZSEL")
    3265                      .dwattr DW$330, DW_AT_data_member_location[DW_OP_plus_uconst 0x12]
    3266                      .dwattr DW$330, DW_AT_accessibility(DW_ACCESS_public)
    3267              DW$331  .dwtag  DW_TAG_member, DW_AT_type(*DW$T$19)
    3268                      .dwattr DW$331, DW_AT_name("rsvd2"), DW_AT_symbol_name("_rsvd2")
    3269                      .dwattr DW$331, DW_AT_data_member_location[DW_OP_plus_uconst 0x13]
    3270                      .dwattr DW$331, DW_AT_accessibility(DW_ACCESS_public)
    3271              DW$332  .dwtag  DW_TAG_member, DW_AT_type(*DW$T$68)
    3272                      .dwattr DW$332, DW_AT_name("TZCTL"), DW_AT_symbol_name("_TZCTL")
    3273                      .dwattr DW$332, DW_AT_data_member_location[DW_OP_plus_uconst 0x14]
    3274                      .dwattr DW$332, DW_AT_accessibility(DW_ACCESS_public)
    3275              DW$333  .dwtag  DW_TAG_member, DW_AT_type(*DW$T$70)
    3276                      .dwattr DW$333, DW_AT_name("TZEINT"), DW_AT_symbol_name("_TZEINT")
    3277                      .dwattr DW$333, DW_AT_data_member_location[DW_OP_plus_uconst 0x15]
    3278                      .dwattr DW$333, DW_AT_accessibility(DW_ACCESS_public)
    3279              DW$334  .dwtag  DW_TAG_member, DW_AT_type(*DW$T$72)
    3280                      .dwattr DW$334, DW_AT_name("TZFLG"), DW_AT_symbol_name("_TZFLG")
    3281                      .dwattr DW$334, DW_AT_data_member_location[DW_OP_plus_uconst 0x16]
    3282                      .dwattr DW$334, DW_AT_accessibility(DW_ACCESS_public)
    3283              DW$335  .dwtag  DW_TAG_member, DW_AT_type(*DW$T$74)
    3284                      .dwattr DW$335, DW_AT_name("TZCLR"), DW_AT_symbol_name("_TZCLR")
    3285                      .dwattr DW$335, DW_AT_data_member_location[DW_OP_plus_uconst 0x17]
    3286                      .dwattr DW$335, DW_AT_accessibility(DW_ACCESS_public)
    3287              DW$336  .dwtag  DW_TAG_member, DW_AT_type(*DW$T$76)
    3288                      .dwattr DW$336, DW_AT_name("TZFRC"), DW_AT_symbol_name("_TZFRC")
    3289                      .dwattr DW$336, DW_AT_data_member_location[DW_OP_plus_uconst 0x18]
    3290                      .dwattr DW$336, DW_AT_accessibility(DW_ACCESS_public)
    3291              DW$337  .dwtag  DW_TAG_member, DW_AT_type(*DW$T$78)
    3292                      .dwattr DW$337, DW_AT_name("ETSEL"), DW_AT_symbol_name("_ETSEL")
    3293                      .dwattr DW$337, DW_AT_data_member_location[DW_OP_plus_uconst 0x19]
    3294                      .dwattr DW$337, DW_AT_accessibility(DW_ACCESS_public)
    3295              DW$338  .dwtag  DW_TAG_member, DW_AT_type(*DW$T$80)
    3296                      .dwattr DW$338, DW_AT_name("ETPS"), DW_AT_symbol_name("_ETPS")
    3297                      .dwattr DW$338, DW_AT_data_member_location[DW_OP_plus_uconst 0x1a]
    3298                      .dwattr DW$338, DW_AT_accessibility(DW_ACCESS_public)
    3299              DW$339  .dwtag  DW_TAG_member, DW_AT_type(*DW$T$82)
    3300                      .dwattr DW$339, DW_AT_name("ETFLG"), DW_AT_symbol_name("_ETFLG")
    3301                      .dwattr DW$339, DW_AT_data_member_location[DW_OP_plus_uconst 0x1b]
    3302                      .dwattr DW$339, DW_AT_accessibility(DW_ACCESS_public)
    3303              DW$340  .dwtag  DW_TAG_member, DW_AT_type(*DW$T$84)
    3304                      .dwattr DW$340, DW_AT_name("ETCLR"), DW_AT_symbol_name("_ETCLR")
    3305                      .dwattr DW$340, DW_AT_data_member_location[DW_OP_plus_uconst 0x1c]
    3306                      .dwattr DW$340, DW_AT_accessibility(DW_ACCESS_public)
    3307              DW$341  .dwtag  DW_TAG_member, DW_AT_type(*DW$T$86)
    3308                      .dwattr DW$341, DW_AT_name("ETFRC"), DW_AT_symbol_name("_ETFRC")
    3309                      .dwattr DW$341, DW_AT_data_member_location[DW_OP_plus_uconst 0x1d]
    3310                      .dwattr DW$341, DW_AT_accessibility(DW_ACCESS_public)
TMS320C2000 COFF Assembler PC v4.1.0 Mon Dec 21 14:54:55 2009

Tools Copyright (c) 1996-2005 Texas Instruments Incorporated
C:\DOCUME~1\ADMINI~1\LOCALS~1\Temp\TI9922                            PAGE   69

    3311              DW$342  .dwtag  DW_TAG_member, DW_AT_type(*DW$T$88)
    3312                      .dwattr DW$342, DW_AT_name("PCCTL"), DW_AT_symbol_name("_PCCTL")
    3313                      .dwattr DW$342, DW_AT_data_member_location[DW_OP_plus_uconst 0x1e]
    3314                      .dwattr DW$342, DW_AT_accessibility(DW_ACCESS_public)
    3315              DW$343  .dwtag  DW_TAG_member, DW_AT_type(*DW$T$19)
    3316                      .dwattr DW$343, DW_AT_name("rsvd3"), DW_AT_symbol_name("_rsvd3")
    3317                      .dwattr DW$343, DW_AT_data_member_location[DW_OP_plus_uconst 0x1f]
    3318                      .dwattr DW$343, DW_AT_accessibility(DW_ACCESS_public)
    3319              DW$344  .dwtag  DW_TAG_member, DW_AT_type(*DW$T$90)
    3320                      .dwattr DW$344, DW_AT_name("HRCNFG"), DW_AT_symbol_name("_HRCNFG")
    3321                      .dwattr DW$344, DW_AT_data_member_location[DW_OP_plus_uconst 0x20]
    3322                      .dwattr DW$344, DW_AT_accessibility(DW_ACCESS_public)
    3323                      .dwendtag DW$T$91
    3324              
    3325              
    3326              DW$T$109        .dwtag  DW_TAG_structure_type
    3327                      .dwattr DW$T$109, DW_AT_name("GPIO_CTRL_REGS")
    3328                      .dwattr DW$T$109, DW_AT_byte_size(0x40)
    3329              DW$345  .dwtag  DW_TAG_member, DW_AT_type(*DW$T$93)
    3330                      .dwattr DW$345, DW_AT_name("GPACTRL"), DW_AT_symbol_name("_GPACTRL")
    3331                      .dwattr DW$345, DW_AT_data_member_location[DW_OP_plus_uconst 0x0]
    3332                      .dwattr DW$345, DW_AT_accessibility(DW_ACCESS_public)
    3333              DW$346  .dwtag  DW_TAG_member, DW_AT_type(*DW$T$95)
    3334                      .dwattr DW$346, DW_AT_name("GPAQSEL1"), DW_AT_symbol_name("_GPAQSEL1")
    3335                      .dwattr DW$346, DW_AT_data_member_location[DW_OP_plus_uconst 0x2]
    3336                      .dwattr DW$346, DW_AT_accessibility(DW_ACCESS_public)
    3337              DW$347  .dwtag  DW_TAG_member, DW_AT_type(*DW$T$97)
    3338                      .dwattr DW$347, DW_AT_name("GPAQSEL2"), DW_AT_symbol_name("_GPAQSEL2")
    3339                      .dwattr DW$347, DW_AT_data_member_location[DW_OP_plus_uconst 0x4]
    3340                      .dwattr DW$347, DW_AT_accessibility(DW_ACCESS_public)
    3341              DW$348  .dwtag  DW_TAG_member, DW_AT_type(*DW$T$95)
    3342                      .dwattr DW$348, DW_AT_name("GPAMUX1"), DW_AT_symbol_name("_GPAMUX1")
    3343                      .dwattr DW$348, DW_AT_data_member_location[DW_OP_plus_uconst 0x6]
    3344                      .dwattr DW$348, DW_AT_accessibility(DW_ACCESS_public)
    3345              DW$349  .dwtag  DW_TAG_member, DW_AT_type(*DW$T$97)
    3346                      .dwattr DW$349, DW_AT_name("GPAMUX2"), DW_AT_symbol_name("_GPAMUX2")
    3347                      .dwattr DW$349, DW_AT_data_member_location[DW_OP_plus_uconst 0x8]
    3348                      .dwattr DW$349, DW_AT_accessibility(DW_ACCESS_public)
    3349              DW$350  .dwtag  DW_TAG_member, DW_AT_type(*DW$T$99)
    3350                      .dwattr DW$350, DW_AT_name("GPADIR"), DW_AT_symbol_name("_GPADIR")
    3351                      .dwattr DW$350, DW_AT_data_member_location[DW_OP_plus_uconst 0xa]
    3352                      .dwattr DW$350, DW_AT_accessibility(DW_ACCESS_public)
    3353              DW$351  .dwtag  DW_TAG_member, DW_AT_type(*DW$T$99)
    3354                      .dwattr DW$351, DW_AT_name("GPAPUD"), DW_AT_symbol_name("_GPAPUD")
    3355                      .dwattr DW$351, DW_AT_data_member_location[DW_OP_plus_uconst 0xc]
    3356                      .dwattr DW$351, DW_AT_accessibility(DW_ACCESS_public)
    3357              DW$352  .dwtag  DW_TAG_member, DW_AT_type(*DW$T$51)
    3358                      .dwattr DW$352, DW_AT_name("rsvd1"), DW_AT_symbol_name("_rsvd1")
    3359                      .dwattr DW$352, DW_AT_data_member_location[DW_OP_plus_uconst 0xe]
    3360                      .dwattr DW$352, DW_AT_accessibility(DW_ACCESS_public)
    3361              DW$353  .dwtag  DW_TAG_member, DW_AT_type(*DW$T$101)
    3362                      .dwattr DW$353, DW_AT_name("GPBCTRL"), DW_AT_symbol_name("_GPBCTRL")
    3363                      .dwattr DW$353, DW_AT_data_member_location[DW_OP_plus_uconst 0x10]
    3364                      .dwattr DW$353, DW_AT_accessibility(DW_ACCESS_public)
    3365              DW$354  .dwtag  DW_TAG_member, DW_AT_type(*DW$T$103)
TMS320C2000 COFF Assembler PC v4.1.0 Mon Dec 21 14:54:55 2009

Tools Copyright (c) 1996-2005 Texas Instruments Incorporated
C:\DOCUME~1\ADMINI~1\LOCALS~1\Temp\TI9922                            PAGE   70

    3366                      .dwattr DW$354, DW_AT_name("GPBQSEL1"), DW_AT_symbol_name("_GPBQSEL1")
    3367                      .dwattr DW$354, DW_AT_data_member_location[DW_OP_plus_uconst 0x12]
    3368                      .dwattr DW$354, DW_AT_accessibility(DW_ACCESS_public)
    3369              DW$355  .dwtag  DW_TAG_member, DW_AT_type(*DW$T$105)
    3370                      .dwattr DW$355, DW_AT_name("GPBQSEL2"), DW_AT_symbol_name("_GPBQSEL2")
    3371                      .dwattr DW$355, DW_AT_data_member_location[DW_OP_plus_uconst 0x14]
    3372                      .dwattr DW$355, DW_AT_accessibility(DW_ACCESS_public)
    3373              DW$356  .dwtag  DW_TAG_member, DW_AT_type(*DW$T$103)
    3374                      .dwattr DW$356, DW_AT_name("GPBMUX1"), DW_AT_symbol_name("_GPBMUX1")
    3375                      .dwattr DW$356, DW_AT_data_member_location[DW_OP_plus_uconst 0x16]
    3376                      .dwattr DW$356, DW_AT_accessibility(DW_ACCESS_public)
    3377              DW$357  .dwtag  DW_TAG_member, DW_AT_type(*DW$T$105)
    3378                      .dwattr DW$357, DW_AT_name("GPBMUX2"), DW_AT_symbol_name("_GPBMUX2")
    3379                      .dwattr DW$357, DW_AT_data_member_location[DW_OP_plus_uconst 0x18]
    3380                      .dwattr DW$357, DW_AT_accessibility(DW_ACCESS_public)
    3381              DW$358  .dwtag  DW_TAG_member, DW_AT_type(*DW$T$107)
    3382                      .dwattr DW$358, DW_AT_name("GPBDIR"), DW_AT_symbol_name("_GPBDIR")
    3383                      .dwattr DW$358, DW_AT_data_member_location[DW_OP_plus_uconst 0x1a]
    3384                      .dwattr DW$358, DW_AT_accessibility(DW_ACCESS_public)
    3385              DW$359  .dwtag  DW_TAG_member, DW_AT_type(*DW$T$107)
    3386                      .dwattr DW$359, DW_AT_name("GPBPUD"), DW_AT_symbol_name("_GPBPUD")
    3387                      .dwattr DW$359, DW_AT_data_member_location[DW_OP_plus_uconst 0x1c]
    3388                      .dwattr DW$359, DW_AT_accessibility(DW_ACCESS_public)
    3389              DW$360  .dwtag  DW_TAG_member, DW_AT_type(*DW$T$108)
    3390                      .dwattr DW$360, DW_AT_name("rsvd2"), DW_AT_symbol_name("_rsvd2")
    3391                      .dwattr DW$360, DW_AT_data_member_location[DW_OP_plus_uconst 0x1e]
    3392                      .dwattr DW$360, DW_AT_accessibility(DW_ACCESS_public)
    3393                      .dwendtag DW$T$109
    3394              
    3395              
    3396              DW$T$111        .dwtag  DW_TAG_structure_type
    3397                      .dwattr DW$T$111, DW_AT_name("GPIO_DATA_REGS")
    3398                      .dwattr DW$T$111, DW_AT_byte_size(0x20)
    3399              DW$361  .dwtag  DW_TAG_member, DW_AT_type(*DW$T$99)
    3400                      .dwattr DW$361, DW_AT_name("GPADAT"), DW_AT_symbol_name("_GPADAT")
    3401                      .dwattr DW$361, DW_AT_data_member_location[DW_OP_plus_uconst 0x0]
    3402                      .dwattr DW$361, DW_AT_accessibility(DW_ACCESS_public)
    3403              DW$362  .dwtag  DW_TAG_member, DW_AT_type(*DW$T$99)
    3404                      .dwattr DW$362, DW_AT_name("GPASET"), DW_AT_symbol_name("_GPASET")
    3405                      .dwattr DW$362, DW_AT_data_member_location[DW_OP_plus_uconst 0x2]
    3406                      .dwattr DW$362, DW_AT_accessibility(DW_ACCESS_public)
    3407              DW$363  .dwtag  DW_TAG_member, DW_AT_type(*DW$T$99)
    3408                      .dwattr DW$363, DW_AT_name("GPACLEAR"), DW_AT_symbol_name("_GPACLEAR")
    3409                      .dwattr DW$363, DW_AT_data_member_location[DW_OP_plus_uconst 0x4]
    3410                      .dwattr DW$363, DW_AT_accessibility(DW_ACCESS_public)
    3411              DW$364  .dwtag  DW_TAG_member, DW_AT_type(*DW$T$99)
    3412                      .dwattr DW$364, DW_AT_name("GPATOGGLE"), DW_AT_symbol_name("_GPATOGGLE")
    3413                      .dwattr DW$364, DW_AT_data_member_location[DW_OP_plus_uconst 0x6]
    3414                      .dwattr DW$364, DW_AT_accessibility(DW_ACCESS_public)
    3415              DW$365  .dwtag  DW_TAG_member, DW_AT_type(*DW$T$107)
    3416                      .dwattr DW$365, DW_AT_name("GPBDAT"), DW_AT_symbol_name("_GPBDAT")
    3417                      .dwattr DW$365, DW_AT_data_member_location[DW_OP_plus_uconst 0x8]
    3418                      .dwattr DW$365, DW_AT_accessibility(DW_ACCESS_public)
    3419              DW$366  .dwtag  DW_TAG_member, DW_AT_type(*DW$T$107)
    3420                      .dwattr DW$366, DW_AT_name("GPBSET"), DW_AT_symbol_name("_GPBSET")
TMS320C2000 COFF Assembler PC v4.1.0 Mon Dec 21 14:54:55 2009

Tools Copyright (c) 1996-2005 Texas Instruments Incorporated
C:\DOCUME~1\ADMINI~1\LOCALS~1\Temp\TI9922                            PAGE   71

    3421                      .dwattr DW$366, DW_AT_data_member_location[DW_OP_plus_uconst 0xa]
    3422                      .dwattr DW$366, DW_AT_accessibility(DW_ACCESS_public)
    3423              DW$367  .dwtag  DW_TAG_member, DW_AT_type(*DW$T$107)
    3424                      .dwattr DW$367, DW_AT_name("GPBCLEAR"), DW_AT_symbol_name("_GPBCLEAR")
    3425                      .dwattr DW$367, DW_AT_data_member_location[DW_OP_plus_uconst 0xc]
    3426                      .dwattr DW$367, DW_AT_accessibility(DW_ACCESS_public)
    3427              DW$368  .dwtag  DW_TAG_member, DW_AT_type(*DW$T$107)
    3428                      .dwattr DW$368, DW_AT_name("GPBTOGGLE"), DW_AT_symbol_name("_GPBTOGGLE")
    3429                      .dwattr DW$368, DW_AT_data_member_location[DW_OP_plus_uconst 0xe]
    3430                      .dwattr DW$368, DW_AT_accessibility(DW_ACCESS_public)
    3431              DW$369  .dwtag  DW_TAG_member, DW_AT_type(*DW$T$110)
    3432                      .dwattr DW$369, DW_AT_name("rsvd1"), DW_AT_symbol_name("_rsvd1")
    3433                      .dwattr DW$369, DW_AT_data_member_location[DW_OP_plus_uconst 0x10]
    3434                      .dwattr DW$369, DW_AT_accessibility(DW_ACCESS_public)
    3435                      .dwendtag DW$T$111
    3436              
    3437              
    3438              DW$T$120        .dwtag  DW_TAG_structure_type
    3439                      .dwattr DW$T$120, DW_AT_name("PIE_CTRL_REGS")
    3440                      .dwattr DW$T$120, DW_AT_byte_size(0x1a)
    3441              DW$370  .dwtag  DW_TAG_member, DW_AT_type(*DW$T$113)
    3442                      .dwattr DW$370, DW_AT_name("PIECTRL"), DW_AT_symbol_name("_PIECTRL")
    3443                      .dwattr DW$370, DW_AT_data_member_location[DW_OP_plus_uconst 0x0]
    3444                      .dwattr DW$370, DW_AT_accessibility(DW_ACCESS_public)
    3445              DW$371  .dwtag  DW_TAG_member, DW_AT_type(*DW$T$115)
    3446                      .dwattr DW$371, DW_AT_name("PIEACK"), DW_AT_symbol_name("_PIEACK")
    3447                      .dwattr DW$371, DW_AT_data_member_location[DW_OP_plus_uconst 0x1]
    3448                      .dwattr DW$371, DW_AT_accessibility(DW_ACCESS_public)
    3449              DW$372  .dwtag  DW_TAG_member, DW_AT_type(*DW$T$117)
    3450                      .dwattr DW$372, DW_AT_name("PIEIER1"), DW_AT_symbol_name("_PIEIER1")
    3451                      .dwattr DW$372, DW_AT_data_member_location[DW_OP_plus_uconst 0x2]
    3452                      .dwattr DW$372, DW_AT_accessibility(DW_ACCESS_public)
    3453              DW$373  .dwtag  DW_TAG_member, DW_AT_type(*DW$T$119)
    3454                      .dwattr DW$373, DW_AT_name("PIEIFR1"), DW_AT_symbol_name("_PIEIFR1")
    3455                      .dwattr DW$373, DW_AT_data_member_location[DW_OP_plus_uconst 0x3]
    3456                      .dwattr DW$373, DW_AT_accessibility(DW_ACCESS_public)
    3457              DW$374  .dwtag  DW_TAG_member, DW_AT_type(*DW$T$117)
    3458                      .dwattr DW$374, DW_AT_name("PIEIER2"), DW_AT_symbol_name("_PIEIER2")
    3459                      .dwattr DW$374, DW_AT_data_member_location[DW_OP_plus_uconst 0x4]
    3460                      .dwattr DW$374, DW_AT_accessibility(DW_ACCESS_public)
    3461              DW$375  .dwtag  DW_TAG_member, DW_AT_type(*DW$T$119)
    3462                      .dwattr DW$375, DW_AT_name("PIEIFR2"), DW_AT_symbol_name("_PIEIFR2")
    3463                      .dwattr DW$375, DW_AT_data_member_location[DW_OP_plus_uconst 0x5]
    3464                      .dwattr DW$375, DW_AT_accessibility(DW_ACCESS_public)
    3465              DW$376  .dwtag  DW_TAG_member, DW_AT_type(*DW$T$117)
    3466                      .dwattr DW$376, DW_AT_name("PIEIER3"), DW_AT_symbol_name("_PIEIER3")
    3467                      .dwattr DW$376, DW_AT_data_member_location[DW_OP_plus_uconst 0x6]
    3468                      .dwattr DW$376, DW_AT_accessibility(DW_ACCESS_public)
    3469              DW$377  .dwtag  DW_TAG_member, DW_AT_type(*DW$T$119)
    3470                      .dwattr DW$377, DW_AT_name("PIEIFR3"), DW_AT_symbol_name("_PIEIFR3")
    3471                      .dwattr DW$377, DW_AT_data_member_location[DW_OP_plus_uconst 0x7]
    3472                      .dwattr DW$377, DW_AT_accessibility(DW_ACCESS_public)
    3473              DW$378  .dwtag  DW_TAG_member, DW_AT_type(*DW$T$117)
    3474                      .dwattr DW$378, DW_AT_name("PIEIER4"), DW_AT_symbol_name("_PIEIER4")
    3475                      .dwattr DW$378, DW_AT_data_member_location[DW_OP_plus_uconst 0x8]
TMS320C2000 COFF Assembler PC v4.1.0 Mon Dec 21 14:54:55 2009

Tools Copyright (c) 1996-2005 Texas Instruments Incorporated
C:\DOCUME~1\ADMINI~1\LOCALS~1\Temp\TI9922                            PAGE   72

    3476                      .dwattr DW$378, DW_AT_accessibility(DW_ACCESS_public)
    3477              DW$379  .dwtag  DW_TAG_member, DW_AT_type(*DW$T$119)
    3478                      .dwattr DW$379, DW_AT_name("PIEIFR4"), DW_AT_symbol_name("_PIEIFR4")
    3479                      .dwattr DW$379, DW_AT_data_member_location[DW_OP_plus_uconst 0x9]
    3480                      .dwattr DW$379, DW_AT_accessibility(DW_ACCESS_public)
    3481              DW$380  .dwtag  DW_TAG_member, DW_AT_type(*DW$T$117)
    3482                      .dwattr DW$380, DW_AT_name("PIEIER5"), DW_AT_symbol_name("_PIEIER5")
    3483                      .dwattr DW$380, DW_AT_data_member_location[DW_OP_plus_uconst 0xa]
    3484                      .dwattr DW$380, DW_AT_accessibility(DW_ACCESS_public)
    3485              DW$381  .dwtag  DW_TAG_member, DW_AT_type(*DW$T$119)
    3486                      .dwattr DW$381, DW_AT_name("PIEIFR5"), DW_AT_symbol_name("_PIEIFR5")
    3487                      .dwattr DW$381, DW_AT_data_member_location[DW_OP_plus_uconst 0xb]
    3488                      .dwattr DW$381, DW_AT_accessibility(DW_ACCESS_public)
    3489              DW$382  .dwtag  DW_TAG_member, DW_AT_type(*DW$T$117)
    3490                      .dwattr DW$382, DW_AT_name("PIEIER6"), DW_AT_symbol_name("_PIEIER6")
    3491                      .dwattr DW$382, DW_AT_data_member_location[DW_OP_plus_uconst 0xc]
    3492                      .dwattr DW$382, DW_AT_accessibility(DW_ACCESS_public)
    3493              DW$383  .dwtag  DW_TAG_member, DW_AT_type(*DW$T$119)
    3494                      .dwattr DW$383, DW_AT_name("PIEIFR6"), DW_AT_symbol_name("_PIEIFR6")
    3495                      .dwattr DW$383, DW_AT_data_member_location[DW_OP_plus_uconst 0xd]
    3496                      .dwattr DW$383, DW_AT_accessibility(DW_ACCESS_public)
    3497              DW$384  .dwtag  DW_TAG_member, DW_AT_type(*DW$T$117)
    3498                      .dwattr DW$384, DW_AT_name("PIEIER7"), DW_AT_symbol_name("_PIEIER7")
    3499                      .dwattr DW$384, DW_AT_data_member_location[DW_OP_plus_uconst 0xe]
    3500                      .dwattr DW$384, DW_AT_accessibility(DW_ACCESS_public)
    3501              DW$385  .dwtag  DW_TAG_member, DW_AT_type(*DW$T$119)
    3502                      .dwattr DW$385, DW_AT_name("PIEIFR7"), DW_AT_symbol_name("_PIEIFR7")
    3503                      .dwattr DW$385, DW_AT_data_member_location[DW_OP_plus_uconst 0xf]
    3504                      .dwattr DW$385, DW_AT_accessibility(DW_ACCESS_public)
    3505              DW$386  .dwtag  DW_TAG_member, DW_AT_type(*DW$T$117)
    3506                      .dwattr DW$386, DW_AT_name("PIEIER8"), DW_AT_symbol_name("_PIEIER8")
    3507                      .dwattr DW$386, DW_AT_data_member_location[DW_OP_plus_uconst 0x10]
    3508                      .dwattr DW$386, DW_AT_accessibility(DW_ACCESS_public)
    3509              DW$387  .dwtag  DW_TAG_member, DW_AT_type(*DW$T$119)
    3510                      .dwattr DW$387, DW_AT_name("PIEIFR8"), DW_AT_symbol_name("_PIEIFR8")
    3511                      .dwattr DW$387, DW_AT_data_member_location[DW_OP_plus_uconst 0x11]
    3512                      .dwattr DW$387, DW_AT_accessibility(DW_ACCESS_public)
    3513              DW$388  .dwtag  DW_TAG_member, DW_AT_type(*DW$T$117)
    3514                      .dwattr DW$388, DW_AT_name("PIEIER9"), DW_AT_symbol_name("_PIEIER9")
    3515                      .dwattr DW$388, DW_AT_data_member_location[DW_OP_plus_uconst 0x12]
    3516                      .dwattr DW$388, DW_AT_accessibility(DW_ACCESS_public)
    3517              DW$389  .dwtag  DW_TAG_member, DW_AT_type(*DW$T$119)
    3518                      .dwattr DW$389, DW_AT_name("PIEIFR9"), DW_AT_symbol_name("_PIEIFR9")
    3519                      .dwattr DW$389, DW_AT_data_member_location[DW_OP_plus_uconst 0x13]
    3520                      .dwattr DW$389, DW_AT_accessibility(DW_ACCESS_public)
    3521              DW$390  .dwtag  DW_TAG_member, DW_AT_type(*DW$T$117)
    3522                      .dwattr DW$390, DW_AT_name("PIEIER10"), DW_AT_symbol_name("_PIEIER10")
    3523                      .dwattr DW$390, DW_AT_data_member_location[DW_OP_plus_uconst 0x14]
    3524                      .dwattr DW$390, DW_AT_accessibility(DW_ACCESS_public)
    3525              DW$391  .dwtag  DW_TAG_member, DW_AT_type(*DW$T$119)
    3526                      .dwattr DW$391, DW_AT_name("PIEIFR10"), DW_AT_symbol_name("_PIEIFR10")
    3527                      .dwattr DW$391, DW_AT_data_member_location[DW_OP_plus_uconst 0x15]
    3528                      .dwattr DW$391, DW_AT_accessibility(DW_ACCESS_public)
    3529              DW$392  .dwtag  DW_TAG_member, DW_AT_type(*DW$T$117)
    3530                      .dwattr DW$392, DW_AT_name("PIEIER11"), DW_AT_symbol_name("_PIEIER11")
TMS320C2000 COFF Assembler PC v4.1.0 Mon Dec 21 14:54:55 2009

Tools Copyright (c) 1996-2005 Texas Instruments Incorporated
C:\DOCUME~1\ADMINI~1\LOCALS~1\Temp\TI9922                            PAGE   73

    3531                      .dwattr DW$392, DW_AT_data_member_location[DW_OP_plus_uconst 0x16]
    3532                      .dwattr DW$392, DW_AT_accessibility(DW_ACCESS_public)
    3533              DW$393  .dwtag  DW_TAG_member, DW_AT_type(*DW$T$119)
    3534                      .dwattr DW$393, DW_AT_name("PIEIFR11"), DW_AT_symbol_name("_PIEIFR11")
    3535                      .dwattr DW$393, DW_AT_data_member_location[DW_OP_plus_uconst 0x17]
    3536                      .dwattr DW$393, DW_AT_accessibility(DW_ACCESS_public)
    3537              DW$394  .dwtag  DW_TAG_member, DW_AT_type(*DW$T$117)
    3538                      .dwattr DW$394, DW_AT_name("PIEIER12"), DW_AT_symbol_name("_PIEIER12")
    3539                      .dwattr DW$394, DW_AT_data_member_location[DW_OP_plus_uconst 0x18]
    3540                      .dwattr DW$394, DW_AT_accessibility(DW_ACCESS_public)
    3541              DW$395  .dwtag  DW_TAG_member, DW_AT_type(*DW$T$119)
    3542                      .dwattr DW$395, DW_AT_name("PIEIFR12"), DW_AT_symbol_name("_PIEIFR12")
    3543                      .dwattr DW$395, DW_AT_data_member_location[DW_OP_plus_uconst 0x19]
    3544                      .dwattr DW$395, DW_AT_accessibility(DW_ACCESS_public)
    3545                      .dwendtag DW$T$120
    3546              
    3547              
    3548              DW$T$144        .dwtag  DW_TAG_structure_type
    3549                      .dwattr DW$T$144, DW_AT_name("SYS_CTRL_REGS")
    3550                      .dwattr DW$T$144, DW_AT_byte_size(0x20)
    3551              DW$396  .dwtag  DW_TAG_member, DW_AT_type(*DW$T$126)
    3552                      .dwattr DW$396, DW_AT_name("XCLK"), DW_AT_symbol_name("_XCLK")
    3553                      .dwattr DW$396, DW_AT_data_member_location[DW_OP_plus_uconst 0x0]
    3554                      .dwattr DW$396, DW_AT_accessibility(DW_ACCESS_public)
    3555              DW$397  .dwtag  DW_TAG_member, DW_AT_type(*DW$T$128)
    3556                      .dwattr DW$397, DW_AT_name("PLLSTS"), DW_AT_symbol_name("_PLLSTS")
    3557                      .dwattr DW$397, DW_AT_data_member_location[DW_OP_plus_uconst 0x1]
    3558                      .dwattr DW$397, DW_AT_accessibility(DW_ACCESS_public)
    3559              DW$398  .dwtag  DW_TAG_member, DW_AT_type(*DW$T$141)
    3560                      .dwattr DW$398, DW_AT_name("rsvd1"), DW_AT_symbol_name("_rsvd1")
    3561                      .dwattr DW$398, DW_AT_data_member_location[DW_OP_plus_uconst 0x2]
    3562                      .dwattr DW$398, DW_AT_accessibility(DW_ACCESS_public)
    3563              DW$399  .dwtag  DW_TAG_member, DW_AT_type(*DW$T$130)
    3564                      .dwattr DW$399, DW_AT_name("HISPCP"), DW_AT_symbol_name("_HISPCP")
    3565                      .dwattr DW$399, DW_AT_data_member_location[DW_OP_plus_uconst 0xa]
    3566                      .dwattr DW$399, DW_AT_accessibility(DW_ACCESS_public)
    3567              DW$400  .dwtag  DW_TAG_member, DW_AT_type(*DW$T$132)
    3568                      .dwattr DW$400, DW_AT_name("LOSPCP"), DW_AT_symbol_name("_LOSPCP")
    3569                      .dwattr DW$400, DW_AT_data_member_location[DW_OP_plus_uconst 0xb]
    3570                      .dwattr DW$400, DW_AT_accessibility(DW_ACCESS_public)
    3571              DW$401  .dwtag  DW_TAG_member, DW_AT_type(*DW$T$134)
    3572                      .dwattr DW$401, DW_AT_name("PCLKCR0"), DW_AT_symbol_name("_PCLKCR0")
    3573                      .dwattr DW$401, DW_AT_data_member_location[DW_OP_plus_uconst 0xc]
    3574                      .dwattr DW$401, DW_AT_accessibility(DW_ACCESS_public)
    3575              DW$402  .dwtag  DW_TAG_member, DW_AT_type(*DW$T$136)
    3576                      .dwattr DW$402, DW_AT_name("PCLKCR1"), DW_AT_symbol_name("_PCLKCR1")
    3577                      .dwattr DW$402, DW_AT_data_member_location[DW_OP_plus_uconst 0xd]
    3578                      .dwattr DW$402, DW_AT_accessibility(DW_ACCESS_public)
    3579              DW$403  .dwtag  DW_TAG_member, DW_AT_type(*DW$T$138)
    3580                      .dwattr DW$403, DW_AT_name("LPMCR0"), DW_AT_symbol_name("_LPMCR0")
    3581                      .dwattr DW$403, DW_AT_data_member_location[DW_OP_plus_uconst 0xe]
    3582                      .dwattr DW$403, DW_AT_accessibility(DW_ACCESS_public)
    3583              DW$404  .dwtag  DW_TAG_member, DW_AT_type(*DW$T$19)
    3584                      .dwattr DW$404, DW_AT_name("rsvd2"), DW_AT_symbol_name("_rsvd2")
    3585                      .dwattr DW$404, DW_AT_data_member_location[DW_OP_plus_uconst 0xf]
TMS320C2000 COFF Assembler PC v4.1.0 Mon Dec 21 14:54:55 2009

Tools Copyright (c) 1996-2005 Texas Instruments Incorporated
C:\DOCUME~1\ADMINI~1\LOCALS~1\Temp\TI9922                            PAGE   74

    3586                      .dwattr DW$404, DW_AT_accessibility(DW_ACCESS_public)
    3587              DW$405  .dwtag  DW_TAG_member, DW_AT_type(*DW$T$19)
    3588                      .dwattr DW$405, DW_AT_name("rsvd3"), DW_AT_symbol_name("_rsvd3")
    3589                      .dwattr DW$405, DW_AT_data_member_location[DW_OP_plus_uconst 0x10]
    3590                      .dwattr DW$405, DW_AT_accessibility(DW_ACCESS_public)
    3591              DW$406  .dwtag  DW_TAG_member, DW_AT_type(*DW$T$140)
    3592                      .dwattr DW$406, DW_AT_name("PLLCR"), DW_AT_symbol_name("_PLLCR")
    3593                      .dwattr DW$406, DW_AT_data_member_location[DW_OP_plus_uconst 0x11]
    3594                      .dwattr DW$406, DW_AT_accessibility(DW_ACCESS_public)
    3595              DW$407  .dwtag  DW_TAG_member, DW_AT_type(*DW$T$19)
    3596                      .dwattr DW$407, DW_AT_name("SCSR"), DW_AT_symbol_name("_SCSR")
    3597                      .dwattr DW$407, DW_AT_data_member_location[DW_OP_plus_uconst 0x12]
    3598                      .dwattr DW$407, DW_AT_accessibility(DW_ACCESS_public)
    3599              DW$408  .dwtag  DW_TAG_member, DW_AT_type(*DW$T$19)
    3600                      .dwattr DW$408, DW_AT_name("WDCNTR"), DW_AT_symbol_name("_WDCNTR")
    3601                      .dwattr DW$408, DW_AT_data_member_location[DW_OP_plus_uconst 0x13]
    3602                      .dwattr DW$408, DW_AT_accessibility(DW_ACCESS_public)
    3603              DW$409  .dwtag  DW_TAG_member, DW_AT_type(*DW$T$19)
    3604                      .dwattr DW$409, DW_AT_name("rsvd4"), DW_AT_symbol_name("_rsvd4")
    3605                      .dwattr DW$409, DW_AT_data_member_location[DW_OP_plus_uconst 0x14]
    3606                      .dwattr DW$409, DW_AT_accessibility(DW_ACCESS_public)
    3607              DW$410  .dwtag  DW_TAG_member, DW_AT_type(*DW$T$19)
    3608                      .dwattr DW$410, DW_AT_name("WDKEY"), DW_AT_symbol_name("_WDKEY")
    3609                      .dwattr DW$410, DW_AT_data_member_location[DW_OP_plus_uconst 0x15]
    3610                      .dwattr DW$410, DW_AT_accessibility(DW_ACCESS_public)
    3611              DW$411  .dwtag  DW_TAG_member, DW_AT_type(*DW$T$142)
    3612                      .dwattr DW$411, DW_AT_name("rsvd5"), DW_AT_symbol_name("_rsvd5")
    3613                      .dwattr DW$411, DW_AT_data_member_location[DW_OP_plus_uconst 0x16]
    3614                      .dwattr DW$411, DW_AT_accessibility(DW_ACCESS_public)
    3615              DW$412  .dwtag  DW_TAG_member, DW_AT_type(*DW$T$19)
    3616                      .dwattr DW$412, DW_AT_name("WDCR"), DW_AT_symbol_name("_WDCR")
    3617                      .dwattr DW$412, DW_AT_data_member_location[DW_OP_plus_uconst 0x19]
    3618                      .dwattr DW$412, DW_AT_accessibility(DW_ACCESS_public)
    3619              DW$413  .dwtag  DW_TAG_member, DW_AT_type(*DW$T$143)
    3620                      .dwattr DW$413, DW_AT_name("rsvd6"), DW_AT_symbol_name("_rsvd6")
    3621                      .dwattr DW$413, DW_AT_data_member_location[DW_OP_plus_uconst 0x1a]
    3622                      .dwattr DW$413, DW_AT_accessibility(DW_ACCESS_public)
    3623                      .dwendtag DW$T$144
    3624              
    3625              DW$T$122        .dwtag  DW_TAG_pointer_type, DW_AT_type(*DW$T$121)
    3626                      .dwattr DW$T$122, DW_AT_address_class(0x16)
    3627              DW$T$19 .dwtag  DW_TAG_typedef, DW_AT_name("Uint16"), DW_AT_type(*DW$T$11)
    3628                      .dwattr DW$T$19, DW_AT_language(DW_LANG_C)
    3629              
    3630              DW$T$108        .dwtag  DW_TAG_array_type, DW_AT_type(*DW$T$19)
    3631                      .dwattr DW$T$108, DW_AT_language(DW_LANG_C)
    3632                      .dwattr DW$T$108, DW_AT_byte_size(0x21)
    3633              DW$414  .dwtag  DW_TAG_subrange_type
    3634                      .dwattr DW$414, DW_AT_upper_bound(0x20)
    3635                      .dwendtag DW$T$108
    3636              
    3637              
    3638              DW$T$110        .dwtag  DW_TAG_array_type, DW_AT_type(*DW$T$19)
    3639                      .dwattr DW$T$110, DW_AT_language(DW_LANG_C)
    3640                      .dwattr DW$T$110, DW_AT_byte_size(0x10)
TMS320C2000 COFF Assembler PC v4.1.0 Mon Dec 21 14:54:55 2009

Tools Copyright (c) 1996-2005 Texas Instruments Incorporated
C:\DOCUME~1\ADMINI~1\LOCALS~1\Temp\TI9922                            PAGE   75

    3641              DW$415  .dwtag  DW_TAG_subrange_type
    3642                      .dwattr DW$415, DW_AT_upper_bound(0x0f)
    3643                      .dwendtag DW$T$110
    3644              
    3645              
    3646              DW$T$141        .dwtag  DW_TAG_array_type, DW_AT_type(*DW$T$19)
    3647                      .dwattr DW$T$141, DW_AT_language(DW_LANG_C)
    3648                      .dwattr DW$T$141, DW_AT_byte_size(0x08)
    3649              DW$416  .dwtag  DW_TAG_subrange_type
    3650                      .dwattr DW$416, DW_AT_upper_bound(0x07)
    3651                      .dwendtag DW$T$141
    3652              
    3653              
    3654              DW$T$142        .dwtag  DW_TAG_array_type, DW_AT_type(*DW$T$19)
    3655                      .dwattr DW$T$142, DW_AT_language(DW_LANG_C)
    3656                      .dwattr DW$T$142, DW_AT_byte_size(0x03)
    3657              DW$417  .dwtag  DW_TAG_subrange_type
    3658                      .dwattr DW$417, DW_AT_upper_bound(0x02)
    3659                      .dwendtag DW$T$142
    3660              
    3661              
    3662              DW$T$143        .dwtag  DW_TAG_array_type, DW_AT_type(*DW$T$19)
    3663                      .dwattr DW$T$143, DW_AT_language(DW_LANG_C)
    3664                      .dwattr DW$T$143, DW_AT_byte_size(0x06)
    3665              DW$418  .dwtag  DW_TAG_subrange_type
    3666                      .dwattr DW$418, DW_AT_upper_bound(0x05)
    3667                      .dwendtag DW$T$143
    3668              
    3669              DW$T$51 .dwtag  DW_TAG_typedef, DW_AT_name("Uint32"), DW_AT_type(*DW$T$13)
    3670                      .dwattr DW$T$51, DW_AT_language(DW_LANG_C)
    3671              
    3672              DW$T$21 .dwtag  DW_TAG_union_type
    3673                      .dwattr DW$T$21, DW_AT_name("ADCTRL1_REG")
    3674                      .dwattr DW$T$21, DW_AT_byte_size(0x01)
    3675              DW$419  .dwtag  DW_TAG_member, DW_AT_type(*DW$T$19)
    3676                      .dwattr DW$419, DW_AT_name("all"), DW_AT_symbol_name("_all")
    3677                      .dwattr DW$419, DW_AT_data_member_location[DW_OP_plus_uconst 0x0]
    3678                      .dwattr DW$419, DW_AT_accessibility(DW_ACCESS_public)
    3679              DW$420  .dwtag  DW_TAG_member, DW_AT_type(*DW$T$20)
    3680                      .dwattr DW$420, DW_AT_name("bit"), DW_AT_symbol_name("_bit")
    3681                      .dwattr DW$420, DW_AT_data_member_location[DW_OP_plus_uconst 0x0]
    3682                      .dwattr DW$420, DW_AT_accessibility(DW_ACCESS_public)
    3683                      .dwendtag DW$T$21
    3684              
    3685              
    3686              DW$T$23 .dwtag  DW_TAG_union_type
    3687                      .dwattr DW$T$23, DW_AT_name("ADCTRL2_REG")
    3688                      .dwattr DW$T$23, DW_AT_byte_size(0x01)
    3689              DW$421  .dwtag  DW_TAG_member, DW_AT_type(*DW$T$19)
    3690                      .dwattr DW$421, DW_AT_name("all"), DW_AT_symbol_name("_all")
    3691                      .dwattr DW$421, DW_AT_data_member_location[DW_OP_plus_uconst 0x0]
    3692                      .dwattr DW$421, DW_AT_accessibility(DW_ACCESS_public)
    3693              DW$422  .dwtag  DW_TAG_member, DW_AT_type(*DW$T$22)
    3694                      .dwattr DW$422, DW_AT_name("bit"), DW_AT_symbol_name("_bit")
    3695                      .dwattr DW$422, DW_AT_data_member_location[DW_OP_plus_uconst 0x0]
TMS320C2000 COFF Assembler PC v4.1.0 Mon Dec 21 14:54:55 2009

Tools Copyright (c) 1996-2005 Texas Instruments Incorporated
C:\DOCUME~1\ADMINI~1\LOCALS~1\Temp\TI9922                            PAGE   76

    3696                      .dwattr DW$422, DW_AT_accessibility(DW_ACCESS_public)
    3697                      .dwendtag DW$T$23
    3698              
    3699              
    3700              DW$T$25 .dwtag  DW_TAG_union_type
    3701                      .dwattr DW$T$25, DW_AT_name("ADCMAXCONV_REG")
    3702                      .dwattr DW$T$25, DW_AT_byte_size(0x01)
    3703              DW$423  .dwtag  DW_TAG_member, DW_AT_type(*DW$T$19)
    3704                      .dwattr DW$423, DW_AT_name("all"), DW_AT_symbol_name("_all")
    3705                      .dwattr DW$423, DW_AT_data_member_location[DW_OP_plus_uconst 0x0]
    3706                      .dwattr DW$423, DW_AT_accessibility(DW_ACCESS_public)
    3707              DW$424  .dwtag  DW_TAG_member, DW_AT_type(*DW$T$24)
    3708                      .dwattr DW$424, DW_AT_name("bit"), DW_AT_symbol_name("_bit")
    3709                      .dwattr DW$424, DW_AT_data_member_location[DW_OP_plus_uconst 0x0]
    3710                      .dwattr DW$424, DW_AT_accessibility(DW_ACCESS_public)
    3711                      .dwendtag DW$T$25
    3712              
    3713              
    3714              DW$T$27 .dwtag  DW_TAG_union_type
    3715                      .dwattr DW$T$27, DW_AT_name("ADCCHSELSEQ1_REG")
    3716                      .dwattr DW$T$27, DW_AT_byte_size(0x01)
    3717              DW$425  .dwtag  DW_TAG_member, DW_AT_type(*DW$T$19)
    3718                      .dwattr DW$425, DW_AT_name("all"), DW_AT_symbol_name("_all")
    3719                      .dwattr DW$425, DW_AT_data_member_location[DW_OP_plus_uconst 0x0]
    3720                      .dwattr DW$425, DW_AT_accessibility(DW_ACCESS_public)
    3721              DW$426  .dwtag  DW_TAG_member, DW_AT_type(*DW$T$26)
    3722                      .dwattr DW$426, DW_AT_name("bit"), DW_AT_symbol_name("_bit")
    3723                      .dwattr DW$426, DW_AT_data_member_location[DW_OP_plus_uconst 0x0]
    3724                      .dwattr DW$426, DW_AT_accessibility(DW_ACCESS_public)
    3725                      .dwendtag DW$T$27
    3726              
    3727              
    3728              DW$T$29 .dwtag  DW_TAG_union_type
    3729                      .dwattr DW$T$29, DW_AT_name("ADCCHSELSEQ2_REG")
    3730                      .dwattr DW$T$29, DW_AT_byte_size(0x01)
    3731              DW$427  .dwtag  DW_TAG_member, DW_AT_type(*DW$T$19)
    3732                      .dwattr DW$427, DW_AT_name("all"), DW_AT_symbol_name("_all")
    3733                      .dwattr DW$427, DW_AT_data_member_location[DW_OP_plus_uconst 0x0]
    3734                      .dwattr DW$427, DW_AT_accessibility(DW_ACCESS_public)
    3735              DW$428  .dwtag  DW_TAG_member, DW_AT_type(*DW$T$28)
    3736                      .dwattr DW$428, DW_AT_name("bit"), DW_AT_symbol_name("_bit")
    3737                      .dwattr DW$428, DW_AT_data_member_location[DW_OP_plus_uconst 0x0]
    3738                      .dwattr DW$428, DW_AT_accessibility(DW_ACCESS_public)
    3739                      .dwendtag DW$T$29
    3740              
    3741              
    3742              DW$T$31 .dwtag  DW_TAG_union_type
    3743                      .dwattr DW$T$31, DW_AT_name("ADCCHSELSEQ3_REG")
    3744                      .dwattr DW$T$31, DW_AT_byte_size(0x01)
    3745              DW$429  .dwtag  DW_TAG_member, DW_AT_type(*DW$T$19)
    3746                      .dwattr DW$429, DW_AT_name("all"), DW_AT_symbol_name("_all")
    3747                      .dwattr DW$429, DW_AT_data_member_location[DW_OP_plus_uconst 0x0]
    3748                      .dwattr DW$429, DW_AT_accessibility(DW_ACCESS_public)
    3749              DW$430  .dwtag  DW_TAG_member, DW_AT_type(*DW$T$30)
    3750                      .dwattr DW$430, DW_AT_name("bit"), DW_AT_symbol_name("_bit")
TMS320C2000 COFF Assembler PC v4.1.0 Mon Dec 21 14:54:55 2009

Tools Copyright (c) 1996-2005 Texas Instruments Incorporated
C:\DOCUME~1\ADMINI~1\LOCALS~1\Temp\TI9922                            PAGE   77

    3751                      .dwattr DW$430, DW_AT_data_member_location[DW_OP_plus_uconst 0x0]
    3752                      .dwattr DW$430, DW_AT_accessibility(DW_ACCESS_public)
    3753                      .dwendtag DW$T$31
    3754              
    3755              
    3756              DW$T$33 .dwtag  DW_TAG_union_type
    3757                      .dwattr DW$T$33, DW_AT_name("ADCCHSELSEQ4_REG")
    3758                      .dwattr DW$T$33, DW_AT_byte_size(0x01)
    3759              DW$431  .dwtag  DW_TAG_member, DW_AT_type(*DW$T$19)
    3760                      .dwattr DW$431, DW_AT_name("all"), DW_AT_symbol_name("_all")
    3761                      .dwattr DW$431, DW_AT_data_member_location[DW_OP_plus_uconst 0x0]
    3762                      .dwattr DW$431, DW_AT_accessibility(DW_ACCESS_public)
    3763              DW$432  .dwtag  DW_TAG_member, DW_AT_type(*DW$T$32)
    3764                      .dwattr DW$432, DW_AT_name("bit"), DW_AT_symbol_name("_bit")
    3765                      .dwattr DW$432, DW_AT_data_member_location[DW_OP_plus_uconst 0x0]
    3766                      .dwattr DW$432, DW_AT_accessibility(DW_ACCESS_public)
    3767                      .dwendtag DW$T$33
    3768              
    3769              
    3770              DW$T$35 .dwtag  DW_TAG_union_type
    3771                      .dwattr DW$T$35, DW_AT_name("ADCASEQSR_REG")
    3772                      .dwattr DW$T$35, DW_AT_byte_size(0x01)
    3773              DW$433  .dwtag  DW_TAG_member, DW_AT_type(*DW$T$19)
    3774                      .dwattr DW$433, DW_AT_name("all"), DW_AT_symbol_name("_all")
    3775                      .dwattr DW$433, DW_AT_data_member_location[DW_OP_plus_uconst 0x0]
    3776                      .dwattr DW$433, DW_AT_accessibility(DW_ACCESS_public)
    3777              DW$434  .dwtag  DW_TAG_member, DW_AT_type(*DW$T$34)
    3778                      .dwattr DW$434, DW_AT_name("bit"), DW_AT_symbol_name("_bit")
    3779                      .dwattr DW$434, DW_AT_data_member_location[DW_OP_plus_uconst 0x0]
    3780                      .dwattr DW$434, DW_AT_accessibility(DW_ACCESS_public)
    3781                      .dwendtag DW$T$35
    3782              
    3783              
    3784              DW$T$37 .dwtag  DW_TAG_union_type
    3785                      .dwattr DW$T$37, DW_AT_name("ADCTRL3_REG")
    3786                      .dwattr DW$T$37, DW_AT_byte_size(0x01)
    3787              DW$435  .dwtag  DW_TAG_member, DW_AT_type(*DW$T$19)
    3788                      .dwattr DW$435, DW_AT_name("all"), DW_AT_symbol_name("_all")
    3789                      .dwattr DW$435, DW_AT_data_member_location[DW_OP_plus_uconst 0x0]
    3790                      .dwattr DW$435, DW_AT_accessibility(DW_ACCESS_public)
    3791              DW$436  .dwtag  DW_TAG_member, DW_AT_type(*DW$T$36)
    3792                      .dwattr DW$436, DW_AT_name("bit"), DW_AT_symbol_name("_bit")
    3793                      .dwattr DW$436, DW_AT_data_member_location[DW_OP_plus_uconst 0x0]
    3794                      .dwattr DW$436, DW_AT_accessibility(DW_ACCESS_public)
    3795                      .dwendtag DW$T$37
    3796              
    3797              
    3798              DW$T$39 .dwtag  DW_TAG_union_type
    3799                      .dwattr DW$T$39, DW_AT_name("ADCST_REG")
    3800                      .dwattr DW$T$39, DW_AT_byte_size(0x01)
    3801              DW$437  .dwtag  DW_TAG_member, DW_AT_type(*DW$T$19)
    3802                      .dwattr DW$437, DW_AT_name("all"), DW_AT_symbol_name("_all")
    3803                      .dwattr DW$437, DW_AT_data_member_location[DW_OP_plus_uconst 0x0]
    3804                      .dwattr DW$437, DW_AT_accessibility(DW_ACCESS_public)
    3805              DW$438  .dwtag  DW_TAG_member, DW_AT_type(*DW$T$38)
TMS320C2000 COFF Assembler PC v4.1.0 Mon Dec 21 14:54:55 2009

Tools Copyright (c) 1996-2005 Texas Instruments Incorporated
C:\DOCUME~1\ADMINI~1\LOCALS~1\Temp\TI9922                            PAGE   78

    3806                      .dwattr DW$438, DW_AT_name("bit"), DW_AT_symbol_name("_bit")
    3807                      .dwattr DW$438, DW_AT_data_member_location[DW_OP_plus_uconst 0x0]
    3808                      .dwattr DW$438, DW_AT_accessibility(DW_ACCESS_public)
    3809                      .dwendtag DW$T$39
    3810              
    3811              
    3812              DW$T$41 .dwtag  DW_TAG_union_type
    3813                      .dwattr DW$T$41, DW_AT_name("ADCREFSEL_REG")
    3814                      .dwattr DW$T$41, DW_AT_byte_size(0x01)
    3815              DW$439  .dwtag  DW_TAG_member, DW_AT_type(*DW$T$19)
    3816                      .dwattr DW$439, DW_AT_name("all"), DW_AT_symbol_name("_all")
    3817                      .dwattr DW$439, DW_AT_data_member_location[DW_OP_plus_uconst 0x0]
    3818                      .dwattr DW$439, DW_AT_accessibility(DW_ACCESS_public)
    3819              DW$440  .dwtag  DW_TAG_member, DW_AT_type(*DW$T$40)
    3820                      .dwattr DW$440, DW_AT_name("bit"), DW_AT_symbol_name("_bit")
    3821                      .dwattr DW$440, DW_AT_data_member_location[DW_OP_plus_uconst 0x0]
    3822                      .dwattr DW$440, DW_AT_accessibility(DW_ACCESS_public)
    3823                      .dwendtag DW$T$41
    3824              
    3825              
    3826              DW$T$44 .dwtag  DW_TAG_union_type
    3827                      .dwattr DW$T$44, DW_AT_name("ADCOFFTRIM_REG")
    3828                      .dwattr DW$T$44, DW_AT_byte_size(0x01)
    3829              DW$441  .dwtag  DW_TAG_member, DW_AT_type(*DW$T$19)
    3830                      .dwattr DW$441, DW_AT_name("all"), DW_AT_symbol_name("_all")
    3831                      .dwattr DW$441, DW_AT_data_member_location[DW_OP_plus_uconst 0x0]
    3832                      .dwattr DW$441, DW_AT_accessibility(DW_ACCESS_public)
    3833              DW$442  .dwtag  DW_TAG_member, DW_AT_type(*DW$T$43)
    3834                      .dwattr DW$442, DW_AT_name("bit"), DW_AT_symbol_name("_bit")
    3835                      .dwattr DW$442, DW_AT_data_member_location[DW_OP_plus_uconst 0x0]
    3836                      .dwattr DW$442, DW_AT_accessibility(DW_ACCESS_public)
    3837                      .dwendtag DW$T$44
    3838              
    3839              
    3840              DW$T$47 .dwtag  DW_TAG_union_type
    3841                      .dwattr DW$T$47, DW_AT_name("TBCTL_REG")
    3842                      .dwattr DW$T$47, DW_AT_byte_size(0x01)
    3843              DW$443  .dwtag  DW_TAG_member, DW_AT_type(*DW$T$19)
    3844                      .dwattr DW$443, DW_AT_name("all"), DW_AT_symbol_name("_all")
    3845                      .dwattr DW$443, DW_AT_data_member_location[DW_OP_plus_uconst 0x0]
    3846                      .dwattr DW$443, DW_AT_accessibility(DW_ACCESS_public)
    3847              DW$444  .dwtag  DW_TAG_member, DW_AT_type(*DW$T$46)
    3848                      .dwattr DW$444, DW_AT_name("bit"), DW_AT_symbol_name("_bit")
    3849                      .dwattr DW$444, DW_AT_data_member_location[DW_OP_plus_uconst 0x0]
    3850                      .dwattr DW$444, DW_AT_accessibility(DW_ACCESS_public)
    3851                      .dwendtag DW$T$47
    3852              
    3853              
    3854              DW$T$49 .dwtag  DW_TAG_union_type
    3855                      .dwattr DW$T$49, DW_AT_name("TBSTS_REG")
    3856                      .dwattr DW$T$49, DW_AT_byte_size(0x01)
    3857              DW$445  .dwtag  DW_TAG_member, DW_AT_type(*DW$T$19)
    3858                      .dwattr DW$445, DW_AT_name("all"), DW_AT_symbol_name("_all")
    3859                      .dwattr DW$445, DW_AT_data_member_location[DW_OP_plus_uconst 0x0]
    3860                      .dwattr DW$445, DW_AT_accessibility(DW_ACCESS_public)
TMS320C2000 COFF Assembler PC v4.1.0 Mon Dec 21 14:54:55 2009

Tools Copyright (c) 1996-2005 Texas Instruments Incorporated
C:\DOCUME~1\ADMINI~1\LOCALS~1\Temp\TI9922                            PAGE   79

    3861              DW$446  .dwtag  DW_TAG_member, DW_AT_type(*DW$T$48)
    3862                      .dwattr DW$446, DW_AT_name("bit"), DW_AT_symbol_name("_bit")
    3863                      .dwattr DW$446, DW_AT_data_member_location[DW_OP_plus_uconst 0x0]
    3864                      .dwattr DW$446, DW_AT_accessibility(DW_ACCESS_public)
    3865                      .dwendtag DW$T$49
    3866              
    3867              
    3868              DW$T$52 .dwtag  DW_TAG_union_type
    3869                      .dwattr DW$T$52, DW_AT_name("TBPHS_HIRES_GROUP")
    3870                      .dwattr DW$T$52, DW_AT_byte_size(0x02)
    3871              DW$447  .dwtag  DW_TAG_member, DW_AT_type(*DW$T$51)
    3872                      .dwattr DW$447, DW_AT_name("all"), DW_AT_symbol_name("_all")
    3873                      .dwattr DW$447, DW_AT_data_member_location[DW_OP_plus_uconst 0x0]
    3874                      .dwattr DW$447, DW_AT_accessibility(DW_ACCESS_public)
    3875              DW$448  .dwtag  DW_TAG_member, DW_AT_type(*DW$T$50)
    3876                      .dwattr DW$448, DW_AT_name("half"), DW_AT_symbol_name("_half")
    3877                      .dwattr DW$448, DW_AT_data_member_location[DW_OP_plus_uconst 0x0]
    3878                      .dwattr DW$448, DW_AT_accessibility(DW_ACCESS_public)
    3879                      .dwendtag DW$T$52
    3880              
    3881              
    3882              DW$T$54 .dwtag  DW_TAG_union_type
    3883                      .dwattr DW$T$54, DW_AT_name("CMPCTL_REG")
    3884                      .dwattr DW$T$54, DW_AT_byte_size(0x01)
    3885              DW$449  .dwtag  DW_TAG_member, DW_AT_type(*DW$T$19)
    3886                      .dwattr DW$449, DW_AT_name("all"), DW_AT_symbol_name("_all")
    3887                      .dwattr DW$449, DW_AT_data_member_location[DW_OP_plus_uconst 0x0]
    3888                      .dwattr DW$449, DW_AT_accessibility(DW_ACCESS_public)
    3889              DW$450  .dwtag  DW_TAG_member, DW_AT_type(*DW$T$53)
    3890                      .dwattr DW$450, DW_AT_name("bit"), DW_AT_symbol_name("_bit")
    3891                      .dwattr DW$450, DW_AT_data_member_location[DW_OP_plus_uconst 0x0]
    3892                      .dwattr DW$450, DW_AT_accessibility(DW_ACCESS_public)
    3893                      .dwendtag DW$T$54
    3894              
    3895              
    3896              DW$T$56 .dwtag  DW_TAG_union_type
    3897                      .dwattr DW$T$56, DW_AT_name("CMPA_HIRES_GROUP")
    3898                      .dwattr DW$T$56, DW_AT_byte_size(0x02)
    3899              DW$451  .dwtag  DW_TAG_member, DW_AT_type(*DW$T$51)
    3900                      .dwattr DW$451, DW_AT_name("all"), DW_AT_symbol_name("_all")
    3901                      .dwattr DW$451, DW_AT_data_member_location[DW_OP_plus_uconst 0x0]
    3902                      .dwattr DW$451, DW_AT_accessibility(DW_ACCESS_public)
    3903              DW$452  .dwtag  DW_TAG_member, DW_AT_type(*DW$T$55)
    3904                      .dwattr DW$452, DW_AT_name("half"), DW_AT_symbol_name("_half")
    3905                      .dwattr DW$452, DW_AT_data_member_location[DW_OP_plus_uconst 0x0]
    3906                      .dwattr DW$452, DW_AT_accessibility(DW_ACCESS_public)
    3907                      .dwendtag DW$T$56
    3908              
    3909              
    3910              DW$T$58 .dwtag  DW_TAG_union_type
    3911                      .dwattr DW$T$58, DW_AT_name("AQCTL_REG")
    3912                      .dwattr DW$T$58, DW_AT_byte_size(0x01)
    3913              DW$453  .dwtag  DW_TAG_member, DW_AT_type(*DW$T$19)
    3914                      .dwattr DW$453, DW_AT_name("all"), DW_AT_symbol_name("_all")
    3915                      .dwattr DW$453, DW_AT_data_member_location[DW_OP_plus_uconst 0x0]
TMS320C2000 COFF Assembler PC v4.1.0 Mon Dec 21 14:54:55 2009

Tools Copyright (c) 1996-2005 Texas Instruments Incorporated
C:\DOCUME~1\ADMINI~1\LOCALS~1\Temp\TI9922                            PAGE   80

    3916                      .dwattr DW$453, DW_AT_accessibility(DW_ACCESS_public)
    3917              DW$454  .dwtag  DW_TAG_member, DW_AT_type(*DW$T$57)
    3918                      .dwattr DW$454, DW_AT_name("bit"), DW_AT_symbol_name("_bit")
    3919                      .dwattr DW$454, DW_AT_data_member_location[DW_OP_plus_uconst 0x0]
    3920                      .dwattr DW$454, DW_AT_accessibility(DW_ACCESS_public)
    3921                      .dwendtag DW$T$58
    3922              
    3923              
    3924              DW$T$60 .dwtag  DW_TAG_union_type
    3925                      .dwattr DW$T$60, DW_AT_name("AQSFRC_REG")
    3926                      .dwattr DW$T$60, DW_AT_byte_size(0x01)
    3927              DW$455  .dwtag  DW_TAG_member, DW_AT_type(*DW$T$19)
    3928                      .dwattr DW$455, DW_AT_name("all"), DW_AT_symbol_name("_all")
    3929                      .dwattr DW$455, DW_AT_data_member_location[DW_OP_plus_uconst 0x0]
    3930                      .dwattr DW$455, DW_AT_accessibility(DW_ACCESS_public)
    3931              DW$456  .dwtag  DW_TAG_member, DW_AT_type(*DW$T$59)
    3932                      .dwattr DW$456, DW_AT_name("bit"), DW_AT_symbol_name("_bit")
    3933                      .dwattr DW$456, DW_AT_data_member_location[DW_OP_plus_uconst 0x0]
    3934                      .dwattr DW$456, DW_AT_accessibility(DW_ACCESS_public)
    3935                      .dwendtag DW$T$60
    3936              
    3937              
    3938              DW$T$62 .dwtag  DW_TAG_union_type
    3939                      .dwattr DW$T$62, DW_AT_name("AQCSFRC_REG")
    3940                      .dwattr DW$T$62, DW_AT_byte_size(0x01)
    3941              DW$457  .dwtag  DW_TAG_member, DW_AT_type(*DW$T$19)
    3942                      .dwattr DW$457, DW_AT_name("all"), DW_AT_symbol_name("_all")
    3943                      .dwattr DW$457, DW_AT_data_member_location[DW_OP_plus_uconst 0x0]
    3944                      .dwattr DW$457, DW_AT_accessibility(DW_ACCESS_public)
    3945              DW$458  .dwtag  DW_TAG_member, DW_AT_type(*DW$T$61)
    3946                      .dwattr DW$458, DW_AT_name("bit"), DW_AT_symbol_name("_bit")
    3947                      .dwattr DW$458, DW_AT_data_member_location[DW_OP_plus_uconst 0x0]
    3948                      .dwattr DW$458, DW_AT_accessibility(DW_ACCESS_public)
    3949                      .dwendtag DW$T$62
    3950              
    3951              
    3952              DW$T$64 .dwtag  DW_TAG_union_type
    3953                      .dwattr DW$T$64, DW_AT_name("DBCTL_REG")
    3954                      .dwattr DW$T$64, DW_AT_byte_size(0x01)
    3955              DW$459  .dwtag  DW_TAG_member, DW_AT_type(*DW$T$19)
    3956                      .dwattr DW$459, DW_AT_name("all"), DW_AT_symbol_name("_all")
    3957                      .dwattr DW$459, DW_AT_data_member_location[DW_OP_plus_uconst 0x0]
    3958                      .dwattr DW$459, DW_AT_accessibility(DW_ACCESS_public)
    3959              DW$460  .dwtag  DW_TAG_member, DW_AT_type(*DW$T$63)
    3960                      .dwattr DW$460, DW_AT_name("bit"), DW_AT_symbol_name("_bit")
    3961                      .dwattr DW$460, DW_AT_data_member_location[DW_OP_plus_uconst 0x0]
    3962                      .dwattr DW$460, DW_AT_accessibility(DW_ACCESS_public)
    3963                      .dwendtag DW$T$64
    3964              
    3965              
    3966              DW$T$66 .dwtag  DW_TAG_union_type
    3967                      .dwattr DW$T$66, DW_AT_name("TZSEL_REG")
    3968                      .dwattr DW$T$66, DW_AT_byte_size(0x01)
    3969              DW$461  .dwtag  DW_TAG_member, DW_AT_type(*DW$T$19)
    3970                      .dwattr DW$461, DW_AT_name("all"), DW_AT_symbol_name("_all")
TMS320C2000 COFF Assembler PC v4.1.0 Mon Dec 21 14:54:55 2009

Tools Copyright (c) 1996-2005 Texas Instruments Incorporated
C:\DOCUME~1\ADMINI~1\LOCALS~1\Temp\TI9922                            PAGE   81

    3971                      .dwattr DW$461, DW_AT_data_member_location[DW_OP_plus_uconst 0x0]
    3972                      .dwattr DW$461, DW_AT_accessibility(DW_ACCESS_public)
    3973              DW$462  .dwtag  DW_TAG_member, DW_AT_type(*DW$T$65)
    3974                      .dwattr DW$462, DW_AT_name("bit"), DW_AT_symbol_name("_bit")
    3975                      .dwattr DW$462, DW_AT_data_member_location[DW_OP_plus_uconst 0x0]
    3976                      .dwattr DW$462, DW_AT_accessibility(DW_ACCESS_public)
    3977                      .dwendtag DW$T$66
    3978              
    3979              
    3980              DW$T$68 .dwtag  DW_TAG_union_type
    3981                      .dwattr DW$T$68, DW_AT_name("TZCTL_REG")
    3982                      .dwattr DW$T$68, DW_AT_byte_size(0x01)
    3983              DW$463  .dwtag  DW_TAG_member, DW_AT_type(*DW$T$19)
    3984                      .dwattr DW$463, DW_AT_name("all"), DW_AT_symbol_name("_all")
    3985                      .dwattr DW$463, DW_AT_data_member_location[DW_OP_plus_uconst 0x0]
    3986                      .dwattr DW$463, DW_AT_accessibility(DW_ACCESS_public)
    3987              DW$464  .dwtag  DW_TAG_member, DW_AT_type(*DW$T$67)
    3988                      .dwattr DW$464, DW_AT_name("bit"), DW_AT_symbol_name("_bit")
    3989                      .dwattr DW$464, DW_AT_data_member_location[DW_OP_plus_uconst 0x0]
    3990                      .dwattr DW$464, DW_AT_accessibility(DW_ACCESS_public)
    3991                      .dwendtag DW$T$68
    3992              
    3993              
    3994              DW$T$70 .dwtag  DW_TAG_union_type
    3995                      .dwattr DW$T$70, DW_AT_name("TZEINT_REG")
    3996                      .dwattr DW$T$70, DW_AT_byte_size(0x01)
    3997              DW$465  .dwtag  DW_TAG_member, DW_AT_type(*DW$T$19)
    3998                      .dwattr DW$465, DW_AT_name("all"), DW_AT_symbol_name("_all")
    3999                      .dwattr DW$465, DW_AT_data_member_location[DW_OP_plus_uconst 0x0]
    4000                      .dwattr DW$465, DW_AT_accessibility(DW_ACCESS_public)
    4001              DW$466  .dwtag  DW_TAG_member, DW_AT_type(*DW$T$69)
    4002                      .dwattr DW$466, DW_AT_name("bit"), DW_AT_symbol_name("_bit")
    4003                      .dwattr DW$466, DW_AT_data_member_location[DW_OP_plus_uconst 0x0]
    4004                      .dwattr DW$466, DW_AT_accessibility(DW_ACCESS_public)
    4005                      .dwendtag DW$T$70
    4006              
    4007              
    4008              DW$T$72 .dwtag  DW_TAG_union_type
    4009                      .dwattr DW$T$72, DW_AT_name("TZFLG_REG")
    4010                      .dwattr DW$T$72, DW_AT_byte_size(0x01)
    4011              DW$467  .dwtag  DW_TAG_member, DW_AT_type(*DW$T$19)
    4012                      .dwattr DW$467, DW_AT_name("all"), DW_AT_symbol_name("_all")
    4013                      .dwattr DW$467, DW_AT_data_member_location[DW_OP_plus_uconst 0x0]
    4014                      .dwattr DW$467, DW_AT_accessibility(DW_ACCESS_public)
    4015              DW$468  .dwtag  DW_TAG_member, DW_AT_type(*DW$T$71)
    4016                      .dwattr DW$468, DW_AT_name("bit"), DW_AT_symbol_name("_bit")
    4017                      .dwattr DW$468, DW_AT_data_member_location[DW_OP_plus_uconst 0x0]
    4018                      .dwattr DW$468, DW_AT_accessibility(DW_ACCESS_public)
    4019                      .dwendtag DW$T$72
    4020              
    4021              
    4022              DW$T$74 .dwtag  DW_TAG_union_type
    4023                      .dwattr DW$T$74, DW_AT_name("TZCLR_REG")
    4024                      .dwattr DW$T$74, DW_AT_byte_size(0x01)
    4025              DW$469  .dwtag  DW_TAG_member, DW_AT_type(*DW$T$19)
TMS320C2000 COFF Assembler PC v4.1.0 Mon Dec 21 14:54:55 2009

Tools Copyright (c) 1996-2005 Texas Instruments Incorporated
C:\DOCUME~1\ADMINI~1\LOCALS~1\Temp\TI9922                            PAGE   82

    4026                      .dwattr DW$469, DW_AT_name("all"), DW_AT_symbol_name("_all")
    4027                      .dwattr DW$469, DW_AT_data_member_location[DW_OP_plus_uconst 0x0]
    4028                      .dwattr DW$469, DW_AT_accessibility(DW_ACCESS_public)
    4029              DW$470  .dwtag  DW_TAG_member, DW_AT_type(*DW$T$73)
    4030                      .dwattr DW$470, DW_AT_name("bit"), DW_AT_symbol_name("_bit")
    4031                      .dwattr DW$470, DW_AT_data_member_location[DW_OP_plus_uconst 0x0]
    4032                      .dwattr DW$470, DW_AT_accessibility(DW_ACCESS_public)
    4033                      .dwendtag DW$T$74
    4034              
    4035              
    4036              DW$T$76 .dwtag  DW_TAG_union_type
    4037                      .dwattr DW$T$76, DW_AT_name("TZFRC_REG")
    4038                      .dwattr DW$T$76, DW_AT_byte_size(0x01)
    4039              DW$471  .dwtag  DW_TAG_member, DW_AT_type(*DW$T$19)
    4040                      .dwattr DW$471, DW_AT_name("all"), DW_AT_symbol_name("_all")
    4041                      .dwattr DW$471, DW_AT_data_member_location[DW_OP_plus_uconst 0x0]
    4042                      .dwattr DW$471, DW_AT_accessibility(DW_ACCESS_public)
    4043              DW$472  .dwtag  DW_TAG_member, DW_AT_type(*DW$T$75)
    4044                      .dwattr DW$472, DW_AT_name("bit"), DW_AT_symbol_name("_bit")
    4045                      .dwattr DW$472, DW_AT_data_member_location[DW_OP_plus_uconst 0x0]
    4046                      .dwattr DW$472, DW_AT_accessibility(DW_ACCESS_public)
    4047                      .dwendtag DW$T$76
    4048              
    4049              
    4050              DW$T$78 .dwtag  DW_TAG_union_type
    4051                      .dwattr DW$T$78, DW_AT_name("ETSEL_REG")
    4052                      .dwattr DW$T$78, DW_AT_byte_size(0x01)
    4053              DW$473  .dwtag  DW_TAG_member, DW_AT_type(*DW$T$19)
    4054                      .dwattr DW$473, DW_AT_name("all"), DW_AT_symbol_name("_all")
    4055                      .dwattr DW$473, DW_AT_data_member_location[DW_OP_plus_uconst 0x0]
    4056                      .dwattr DW$473, DW_AT_accessibility(DW_ACCESS_public)
    4057              DW$474  .dwtag  DW_TAG_member, DW_AT_type(*DW$T$77)
    4058                      .dwattr DW$474, DW_AT_name("bit"), DW_AT_symbol_name("_bit")
    4059                      .dwattr DW$474, DW_AT_data_member_location[DW_OP_plus_uconst 0x0]
    4060                      .dwattr DW$474, DW_AT_accessibility(DW_ACCESS_public)
    4061                      .dwendtag DW$T$78
    4062              
    4063              
    4064              DW$T$80 .dwtag  DW_TAG_union_type
    4065                      .dwattr DW$T$80, DW_AT_name("ETPS_REG")
    4066                      .dwattr DW$T$80, DW_AT_byte_size(0x01)
    4067              DW$475  .dwtag  DW_TAG_member, DW_AT_type(*DW$T$19)
    4068                      .dwattr DW$475, DW_AT_name("all"), DW_AT_symbol_name("_all")
    4069                      .dwattr DW$475, DW_AT_data_member_location[DW_OP_plus_uconst 0x0]
    4070                      .dwattr DW$475, DW_AT_accessibility(DW_ACCESS_public)
    4071              DW$476  .dwtag  DW_TAG_member, DW_AT_type(*DW$T$79)
    4072                      .dwattr DW$476, DW_AT_name("bit"), DW_AT_symbol_name("_bit")
    4073                      .dwattr DW$476, DW_AT_data_member_location[DW_OP_plus_uconst 0x0]
    4074                      .dwattr DW$476, DW_AT_accessibility(DW_ACCESS_public)
    4075                      .dwendtag DW$T$80
    4076              
    4077              
    4078              DW$T$82 .dwtag  DW_TAG_union_type
    4079                      .dwattr DW$T$82, DW_AT_name("ETFLG_REG")
    4080                      .dwattr DW$T$82, DW_AT_byte_size(0x01)
TMS320C2000 COFF Assembler PC v4.1.0 Mon Dec 21 14:54:55 2009

Tools Copyright (c) 1996-2005 Texas Instruments Incorporated
C:\DOCUME~1\ADMINI~1\LOCALS~1\Temp\TI9922                            PAGE   83

    4081              DW$477  .dwtag  DW_TAG_member, DW_AT_type(*DW$T$19)
    4082                      .dwattr DW$477, DW_AT_name("all"), DW_AT_symbol_name("_all")
    4083                      .dwattr DW$477, DW_AT_data_member_location[DW_OP_plus_uconst 0x0]
    4084                      .dwattr DW$477, DW_AT_accessibility(DW_ACCESS_public)
    4085              DW$478  .dwtag  DW_TAG_member, DW_AT_type(*DW$T$81)
    4086                      .dwattr DW$478, DW_AT_name("bit"), DW_AT_symbol_name("_bit")
    4087                      .dwattr DW$478, DW_AT_data_member_location[DW_OP_plus_uconst 0x0]
    4088                      .dwattr DW$478, DW_AT_accessibility(DW_ACCESS_public)
    4089                      .dwendtag DW$T$82
    4090              
    4091              
    4092              DW$T$84 .dwtag  DW_TAG_union_type
    4093                      .dwattr DW$T$84, DW_AT_name("ETCLR_REG")
    4094                      .dwattr DW$T$84, DW_AT_byte_size(0x01)
    4095              DW$479  .dwtag  DW_TAG_member, DW_AT_type(*DW$T$19)
    4096                      .dwattr DW$479, DW_AT_name("all"), DW_AT_symbol_name("_all")
    4097                      .dwattr DW$479, DW_AT_data_member_location[DW_OP_plus_uconst 0x0]
    4098                      .dwattr DW$479, DW_AT_accessibility(DW_ACCESS_public)
    4099              DW$480  .dwtag  DW_TAG_member, DW_AT_type(*DW$T$83)
    4100                      .dwattr DW$480, DW_AT_name("bit"), DW_AT_symbol_name("_bit")
    4101                      .dwattr DW$480, DW_AT_data_member_location[DW_OP_plus_uconst 0x0]
    4102                      .dwattr DW$480, DW_AT_accessibility(DW_ACCESS_public)
    4103                      .dwendtag DW$T$84
    4104              
    4105              
    4106              DW$T$86 .dwtag  DW_TAG_union_type
    4107                      .dwattr DW$T$86, DW_AT_name("ETFRC_REG")
    4108                      .dwattr DW$T$86, DW_AT_byte_size(0x01)
    4109              DW$481  .dwtag  DW_TAG_member, DW_AT_type(*DW$T$19)
    4110                      .dwattr DW$481, DW_AT_name("all"), DW_AT_symbol_name("_all")
    4111                      .dwattr DW$481, DW_AT_data_member_location[DW_OP_plus_uconst 0x0]
    4112                      .dwattr DW$481, DW_AT_accessibility(DW_ACCESS_public)
    4113              DW$482  .dwtag  DW_TAG_member, DW_AT_type(*DW$T$85)
    4114                      .dwattr DW$482, DW_AT_name("bit"), DW_AT_symbol_name("_bit")
    4115                      .dwattr DW$482, DW_AT_data_member_location[DW_OP_plus_uconst 0x0]
    4116                      .dwattr DW$482, DW_AT_accessibility(DW_ACCESS_public)
    4117                      .dwendtag DW$T$86
    4118              
    4119              
    4120              DW$T$88 .dwtag  DW_TAG_union_type
    4121                      .dwattr DW$T$88, DW_AT_name("PCCTL_REG")
    4122                      .dwattr DW$T$88, DW_AT_byte_size(0x01)
    4123              DW$483  .dwtag  DW_TAG_member, DW_AT_type(*DW$T$19)
    4124                      .dwattr DW$483, DW_AT_name("all"), DW_AT_symbol_name("_all")
    4125                      .dwattr DW$483, DW_AT_data_member_location[DW_OP_plus_uconst 0x0]
    4126                      .dwattr DW$483, DW_AT_accessibility(DW_ACCESS_public)
    4127              DW$484  .dwtag  DW_TAG_member, DW_AT_type(*DW$T$87)
    4128                      .dwattr DW$484, DW_AT_name("bit"), DW_AT_symbol_name("_bit")
    4129                      .dwattr DW$484, DW_AT_data_member_location[DW_OP_plus_uconst 0x0]
    4130                      .dwattr DW$484, DW_AT_accessibility(DW_ACCESS_public)
    4131                      .dwendtag DW$T$88
    4132              
    4133              
    4134              DW$T$90 .dwtag  DW_TAG_union_type
    4135                      .dwattr DW$T$90, DW_AT_name("HRCNFG_REG")
TMS320C2000 COFF Assembler PC v4.1.0 Mon Dec 21 14:54:55 2009

Tools Copyright (c) 1996-2005 Texas Instruments Incorporated
C:\DOCUME~1\ADMINI~1\LOCALS~1\Temp\TI9922                            PAGE   84

    4136                      .dwattr DW$T$90, DW_AT_byte_size(0x01)
    4137              DW$485  .dwtag  DW_TAG_member, DW_AT_type(*DW$T$19)
    4138                      .dwattr DW$485, DW_AT_name("all"), DW_AT_symbol_name("_all")
    4139                      .dwattr DW$485, DW_AT_data_member_location[DW_OP_plus_uconst 0x0]
    4140                      .dwattr DW$485, DW_AT_accessibility(DW_ACCESS_public)
    4141              DW$486  .dwtag  DW_TAG_member, DW_AT_type(*DW$T$89)
    4142                      .dwattr DW$486, DW_AT_name("bit"), DW_AT_symbol_name("_bit")
    4143                      .dwattr DW$486, DW_AT_data_member_location[DW_OP_plus_uconst 0x0]
    4144                      .dwattr DW$486, DW_AT_accessibility(DW_ACCESS_public)
    4145                      .dwendtag DW$T$90
    4146              
    4147              
    4148              DW$T$93 .dwtag  DW_TAG_union_type
    4149                      .dwattr DW$T$93, DW_AT_name("GPACTRL_REG")
    4150                      .dwattr DW$T$93, DW_AT_byte_size(0x02)
    4151              DW$487  .dwtag  DW_TAG_member, DW_AT_type(*DW$T$51)
    4152                      .dwattr DW$487, DW_AT_name("all"), DW_AT_symbol_name("_all")
    4153                      .dwattr DW$487, DW_AT_data_member_location[DW_OP_plus_uconst 0x0]
    4154                      .dwattr DW$487, DW_AT_accessibility(DW_ACCESS_public)
    4155              DW$488  .dwtag  DW_TAG_member, DW_AT_type(*DW$T$92)
    4156                      .dwattr DW$488, DW_AT_name("bit"), DW_AT_symbol_name("_bit")
    4157                      .dwattr DW$488, DW_AT_data_member_location[DW_OP_plus_uconst 0x0]
    4158                      .dwattr DW$488, DW_AT_accessibility(DW_ACCESS_public)
    4159                      .dwendtag DW$T$93
    4160              
    4161              
    4162              DW$T$95 .dwtag  DW_TAG_union_type
    4163                      .dwattr DW$T$95, DW_AT_name("GPA1_REG")
    4164                      .dwattr DW$T$95, DW_AT_byte_size(0x02)
    4165              DW$489  .dwtag  DW_TAG_member, DW_AT_type(*DW$T$51)
    4166                      .dwattr DW$489, DW_AT_name("all"), DW_AT_symbol_name("_all")
    4167                      .dwattr DW$489, DW_AT_data_member_location[DW_OP_plus_uconst 0x0]
    4168                      .dwattr DW$489, DW_AT_accessibility(DW_ACCESS_public)
    4169              DW$490  .dwtag  DW_TAG_member, DW_AT_type(*DW$T$94)
    4170                      .dwattr DW$490, DW_AT_name("bit"), DW_AT_symbol_name("_bit")
    4171                      .dwattr DW$490, DW_AT_data_member_location[DW_OP_plus_uconst 0x0]
    4172                      .dwattr DW$490, DW_AT_accessibility(DW_ACCESS_public)
    4173                      .dwendtag DW$T$95
    4174              
    4175              
    4176              DW$T$97 .dwtag  DW_TAG_union_type
    4177                      .dwattr DW$T$97, DW_AT_name("GPA2_REG")
    4178                      .dwattr DW$T$97, DW_AT_byte_size(0x02)
    4179              DW$491  .dwtag  DW_TAG_member, DW_AT_type(*DW$T$51)
    4180                      .dwattr DW$491, DW_AT_name("all"), DW_AT_symbol_name("_all")
    4181                      .dwattr DW$491, DW_AT_data_member_location[DW_OP_plus_uconst 0x0]
    4182                      .dwattr DW$491, DW_AT_accessibility(DW_ACCESS_public)
    4183              DW$492  .dwtag  DW_TAG_member, DW_AT_type(*DW$T$96)
    4184                      .dwattr DW$492, DW_AT_name("bit"), DW_AT_symbol_name("_bit")
    4185                      .dwattr DW$492, DW_AT_data_member_location[DW_OP_plus_uconst 0x0]
    4186                      .dwattr DW$492, DW_AT_accessibility(DW_ACCESS_public)
    4187                      .dwendtag DW$T$97
    4188              
    4189              
    4190              DW$T$99 .dwtag  DW_TAG_union_type
TMS320C2000 COFF Assembler PC v4.1.0 Mon Dec 21 14:54:55 2009

Tools Copyright (c) 1996-2005 Texas Instruments Incorporated
C:\DOCUME~1\ADMINI~1\LOCALS~1\Temp\TI9922                            PAGE   85

    4191                      .dwattr DW$T$99, DW_AT_name("GPADAT_REG")
    4192                      .dwattr DW$T$99, DW_AT_byte_size(0x02)
    4193              DW$493  .dwtag  DW_TAG_member, DW_AT_type(*DW$T$51)
    4194                      .dwattr DW$493, DW_AT_name("all"), DW_AT_symbol_name("_all")
    4195                      .dwattr DW$493, DW_AT_data_member_location[DW_OP_plus_uconst 0x0]
    4196                      .dwattr DW$493, DW_AT_accessibility(DW_ACCESS_public)
    4197              DW$494  .dwtag  DW_TAG_member, DW_AT_type(*DW$T$98)
    4198                      .dwattr DW$494, DW_AT_name("bit"), DW_AT_symbol_name("_bit")
    4199                      .dwattr DW$494, DW_AT_data_member_location[DW_OP_plus_uconst 0x0]
    4200                      .dwattr DW$494, DW_AT_accessibility(DW_ACCESS_public)
    4201                      .dwendtag DW$T$99
    4202              
    4203              
    4204              DW$T$101        .dwtag  DW_TAG_union_type
    4205                      .dwattr DW$T$101, DW_AT_name("GPBCTRL_REG")
    4206                      .dwattr DW$T$101, DW_AT_byte_size(0x02)
    4207              DW$495  .dwtag  DW_TAG_member, DW_AT_type(*DW$T$51)
    4208                      .dwattr DW$495, DW_AT_name("all"), DW_AT_symbol_name("_all")
    4209                      .dwattr DW$495, DW_AT_data_member_location[DW_OP_plus_uconst 0x0]
    4210                      .dwattr DW$495, DW_AT_accessibility(DW_ACCESS_public)
    4211              DW$496  .dwtag  DW_TAG_member, DW_AT_type(*DW$T$100)
    4212                      .dwattr DW$496, DW_AT_name("bit"), DW_AT_symbol_name("_bit")
    4213                      .dwattr DW$496, DW_AT_data_member_location[DW_OP_plus_uconst 0x0]
    4214                      .dwattr DW$496, DW_AT_accessibility(DW_ACCESS_public)
    4215                      .dwendtag DW$T$101
    4216              
    4217              
    4218              DW$T$103        .dwtag  DW_TAG_union_type
    4219                      .dwattr DW$T$103, DW_AT_name("GPB1_REG")
    4220                      .dwattr DW$T$103, DW_AT_byte_size(0x02)
    4221              DW$497  .dwtag  DW_TAG_member, DW_AT_type(*DW$T$51)
    4222                      .dwattr DW$497, DW_AT_name("all"), DW_AT_symbol_name("_all")
    4223                      .dwattr DW$497, DW_AT_data_member_location[DW_OP_plus_uconst 0x0]
    4224                      .dwattr DW$497, DW_AT_accessibility(DW_ACCESS_public)
    4225              DW$498  .dwtag  DW_TAG_member, DW_AT_type(*DW$T$102)
    4226                      .dwattr DW$498, DW_AT_name("bit"), DW_AT_symbol_name("_bit")
    4227                      .dwattr DW$498, DW_AT_data_member_location[DW_OP_plus_uconst 0x0]
    4228                      .dwattr DW$498, DW_AT_accessibility(DW_ACCESS_public)
    4229                      .dwendtag DW$T$103
    4230              
    4231              
    4232              DW$T$105        .dwtag  DW_TAG_union_type
    4233                      .dwattr DW$T$105, DW_AT_name("GPB2_REG")
    4234                      .dwattr DW$T$105, DW_AT_byte_size(0x02)
    4235              DW$499  .dwtag  DW_TAG_member, DW_AT_type(*DW$T$51)
    4236                      .dwattr DW$499, DW_AT_name("all"), DW_AT_symbol_name("_all")
    4237                      .dwattr DW$499, DW_AT_data_member_location[DW_OP_plus_uconst 0x0]
    4238                      .dwattr DW$499, DW_AT_accessibility(DW_ACCESS_public)
    4239              DW$500  .dwtag  DW_TAG_member, DW_AT_type(*DW$T$104)
    4240                      .dwattr DW$500, DW_AT_name("bit"), DW_AT_symbol_name("_bit")
    4241                      .dwattr DW$500, DW_AT_data_member_location[DW_OP_plus_uconst 0x0]
    4242                      .dwattr DW$500, DW_AT_accessibility(DW_ACCESS_public)
    4243                      .dwendtag DW$T$105
    4244              
    4245              
TMS320C2000 COFF Assembler PC v4.1.0 Mon Dec 21 14:54:55 2009

Tools Copyright (c) 1996-2005 Texas Instruments Incorporated
C:\DOCUME~1\ADMINI~1\LOCALS~1\Temp\TI9922                            PAGE   86

    4246              DW$T$107        .dwtag  DW_TAG_union_type
    4247                      .dwattr DW$T$107, DW_AT_name("GPBDAT_REG")
    4248                      .dwattr DW$T$107, DW_AT_byte_size(0x02)
    4249              DW$501  .dwtag  DW_TAG_member, DW_AT_type(*DW$T$51)
    4250                      .dwattr DW$501, DW_AT_name("all"), DW_AT_symbol_name("_all")
    4251                      .dwattr DW$501, DW_AT_data_member_location[DW_OP_plus_uconst 0x0]
    4252                      .dwattr DW$501, DW_AT_accessibility(DW_ACCESS_public)
    4253              DW$502  .dwtag  DW_TAG_member, DW_AT_type(*DW$T$106)
    4254                      .dwattr DW$502, DW_AT_name("bit"), DW_AT_symbol_name("_bit")
    4255                      .dwattr DW$502, DW_AT_data_member_location[DW_OP_plus_uconst 0x0]
    4256                      .dwattr DW$502, DW_AT_accessibility(DW_ACCESS_public)
    4257                      .dwendtag DW$T$107
    4258              
    4259              
    4260              DW$T$113        .dwtag  DW_TAG_union_type
    4261                      .dwattr DW$T$113, DW_AT_name("PIECTRL_REG")
    4262                      .dwattr DW$T$113, DW_AT_byte_size(0x01)
    4263              DW$503  .dwtag  DW_TAG_member, DW_AT_type(*DW$T$19)
    4264                      .dwattr DW$503, DW_AT_name("all"), DW_AT_symbol_name("_all")
    4265                      .dwattr DW$503, DW_AT_data_member_location[DW_OP_plus_uconst 0x0]
    4266                      .dwattr DW$503, DW_AT_accessibility(DW_ACCESS_public)
    4267              DW$504  .dwtag  DW_TAG_member, DW_AT_type(*DW$T$112)
    4268                      .dwattr DW$504, DW_AT_name("bit"), DW_AT_symbol_name("_bit")
    4269                      .dwattr DW$504, DW_AT_data_member_location[DW_OP_plus_uconst 0x0]
    4270                      .dwattr DW$504, DW_AT_accessibility(DW_ACCESS_public)
    4271                      .dwendtag DW$T$113
    4272              
    4273              
    4274              DW$T$115        .dwtag  DW_TAG_union_type
    4275                      .dwattr DW$T$115, DW_AT_name("PIEACK_REG")
    4276                      .dwattr DW$T$115, DW_AT_byte_size(0x01)
    4277              DW$505  .dwtag  DW_TAG_member, DW_AT_type(*DW$T$19)
    4278                      .dwattr DW$505, DW_AT_name("all"), DW_AT_symbol_name("_all")
    4279                      .dwattr DW$505, DW_AT_data_member_location[DW_OP_plus_uconst 0x0]
    4280                      .dwattr DW$505, DW_AT_accessibility(DW_ACCESS_public)
    4281              DW$506  .dwtag  DW_TAG_member, DW_AT_type(*DW$T$114)
    4282                      .dwattr DW$506, DW_AT_name("bit"), DW_AT_symbol_name("_bit")
    4283                      .dwattr DW$506, DW_AT_data_member_location[DW_OP_plus_uconst 0x0]
    4284                      .dwattr DW$506, DW_AT_accessibility(DW_ACCESS_public)
    4285                      .dwendtag DW$T$115
    4286              
    4287              
    4288              DW$T$117        .dwtag  DW_TAG_union_type
    4289                      .dwattr DW$T$117, DW_AT_name("PIEIER_REG")
    4290                      .dwattr DW$T$117, DW_AT_byte_size(0x01)
    4291              DW$507  .dwtag  DW_TAG_member, DW_AT_type(*DW$T$19)
    4292                      .dwattr DW$507, DW_AT_name("all"), DW_AT_symbol_name("_all")
    4293                      .dwattr DW$507, DW_AT_data_member_location[DW_OP_plus_uconst 0x0]
    4294                      .dwattr DW$507, DW_AT_accessibility(DW_ACCESS_public)
    4295              DW$508  .dwtag  DW_TAG_member, DW_AT_type(*DW$T$116)
    4296                      .dwattr DW$508, DW_AT_name("bit"), DW_AT_symbol_name("_bit")
    4297                      .dwattr DW$508, DW_AT_data_member_location[DW_OP_plus_uconst 0x0]
    4298                      .dwattr DW$508, DW_AT_accessibility(DW_ACCESS_public)
    4299                      .dwendtag DW$T$117
    4300              
TMS320C2000 COFF Assembler PC v4.1.0 Mon Dec 21 14:54:55 2009

Tools Copyright (c) 1996-2005 Texas Instruments Incorporated
C:\DOCUME~1\ADMINI~1\LOCALS~1\Temp\TI9922                            PAGE   87

    4301              
    4302              DW$T$119        .dwtag  DW_TAG_union_type
    4303                      .dwattr DW$T$119, DW_AT_name("PIEIFR_REG")
    4304                      .dwattr DW$T$119, DW_AT_byte_size(0x01)
    4305              DW$509  .dwtag  DW_TAG_member, DW_AT_type(*DW$T$19)
    4306                      .dwattr DW$509, DW_AT_name("all"), DW_AT_symbol_name("_all")
    4307                      .dwattr DW$509, DW_AT_data_member_location[DW_OP_plus_uconst 0x0]
    4308                      .dwattr DW$509, DW_AT_accessibility(DW_ACCESS_public)
    4309              DW$510  .dwtag  DW_TAG_member, DW_AT_type(*DW$T$118)
    4310                      .dwattr DW$510, DW_AT_name("bit"), DW_AT_symbol_name("_bit")
    4311                      .dwattr DW$510, DW_AT_data_member_location[DW_OP_plus_uconst 0x0]
    4312                      .dwattr DW$510, DW_AT_accessibility(DW_ACCESS_public)
    4313                      .dwendtag DW$T$119
    4314              
    4315              
    4316              DW$T$126        .dwtag  DW_TAG_union_type
    4317                      .dwattr DW$T$126, DW_AT_name("XCLK_REG")
    4318                      .dwattr DW$T$126, DW_AT_byte_size(0x01)
    4319              DW$511  .dwtag  DW_TAG_member, DW_AT_type(*DW$T$19)
    4320                      .dwattr DW$511, DW_AT_name("all"), DW_AT_symbol_name("_all")
    4321                      .dwattr DW$511, DW_AT_data_member_location[DW_OP_plus_uconst 0x0]
    4322                      .dwattr DW$511, DW_AT_accessibility(DW_ACCESS_public)
    4323              DW$512  .dwtag  DW_TAG_member, DW_AT_type(*DW$T$125)
    4324                      .dwattr DW$512, DW_AT_name("bit"), DW_AT_symbol_name("_bit")
    4325                      .dwattr DW$512, DW_AT_data_member_location[DW_OP_plus_uconst 0x0]
    4326                      .dwattr DW$512, DW_AT_accessibility(DW_ACCESS_public)
    4327                      .dwendtag DW$T$126
    4328              
    4329              
    4330              DW$T$128        .dwtag  DW_TAG_union_type
    4331                      .dwattr DW$T$128, DW_AT_name("PLLSTS_REG")
    4332                      .dwattr DW$T$128, DW_AT_byte_size(0x01)
    4333              DW$513  .dwtag  DW_TAG_member, DW_AT_type(*DW$T$19)
    4334                      .dwattr DW$513, DW_AT_name("all"), DW_AT_symbol_name("_all")
    4335                      .dwattr DW$513, DW_AT_data_member_location[DW_OP_plus_uconst 0x0]
    4336                      .dwattr DW$513, DW_AT_accessibility(DW_ACCESS_public)
    4337              DW$514  .dwtag  DW_TAG_member, DW_AT_type(*DW$T$127)
    4338                      .dwattr DW$514, DW_AT_name("bit"), DW_AT_symbol_name("_bit")
    4339                      .dwattr DW$514, DW_AT_data_member_location[DW_OP_plus_uconst 0x0]
    4340                      .dwattr DW$514, DW_AT_accessibility(DW_ACCESS_public)
    4341                      .dwendtag DW$T$128
    4342              
    4343              
    4344              DW$T$130        .dwtag  DW_TAG_union_type
    4345                      .dwattr DW$T$130, DW_AT_name("HISPCP_REG")
    4346                      .dwattr DW$T$130, DW_AT_byte_size(0x01)
    4347              DW$515  .dwtag  DW_TAG_member, DW_AT_type(*DW$T$19)
    4348                      .dwattr DW$515, DW_AT_name("all"), DW_AT_symbol_name("_all")
    4349                      .dwattr DW$515, DW_AT_data_member_location[DW_OP_plus_uconst 0x0]
    4350                      .dwattr DW$515, DW_AT_accessibility(DW_ACCESS_public)
    4351              DW$516  .dwtag  DW_TAG_member, DW_AT_type(*DW$T$129)
    4352                      .dwattr DW$516, DW_AT_name("bit"), DW_AT_symbol_name("_bit")
    4353                      .dwattr DW$516, DW_AT_data_member_location[DW_OP_plus_uconst 0x0]
    4354                      .dwattr DW$516, DW_AT_accessibility(DW_ACCESS_public)
    4355                      .dwendtag DW$T$130
TMS320C2000 COFF Assembler PC v4.1.0 Mon Dec 21 14:54:55 2009

Tools Copyright (c) 1996-2005 Texas Instruments Incorporated
C:\DOCUME~1\ADMINI~1\LOCALS~1\Temp\TI9922                            PAGE   88

    4356              
    4357              
    4358              DW$T$132        .dwtag  DW_TAG_union_type
    4359                      .dwattr DW$T$132, DW_AT_name("LOSPCP_REG")
    4360                      .dwattr DW$T$132, DW_AT_byte_size(0x01)
    4361              DW$517  .dwtag  DW_TAG_member, DW_AT_type(*DW$T$19)
    4362                      .dwattr DW$517, DW_AT_name("all"), DW_AT_symbol_name("_all")
    4363                      .dwattr DW$517, DW_AT_data_member_location[DW_OP_plus_uconst 0x0]
    4364                      .dwattr DW$517, DW_AT_accessibility(DW_ACCESS_public)
    4365              DW$518  .dwtag  DW_TAG_member, DW_AT_type(*DW$T$131)
    4366                      .dwattr DW$518, DW_AT_name("bit"), DW_AT_symbol_name("_bit")
    4367                      .dwattr DW$518, DW_AT_data_member_location[DW_OP_plus_uconst 0x0]
    4368                      .dwattr DW$518, DW_AT_accessibility(DW_ACCESS_public)
    4369                      .dwendtag DW$T$132
    4370              
    4371              
    4372              DW$T$134        .dwtag  DW_TAG_union_type
    4373                      .dwattr DW$T$134, DW_AT_name("PCLKCR0_REG")
    4374                      .dwattr DW$T$134, DW_AT_byte_size(0x01)
    4375              DW$519  .dwtag  DW_TAG_member, DW_AT_type(*DW$T$19)
    4376                      .dwattr DW$519, DW_AT_name("all"), DW_AT_symbol_name("_all")
    4377                      .dwattr DW$519, DW_AT_data_member_location[DW_OP_plus_uconst 0x0]
    4378                      .dwattr DW$519, DW_AT_accessibility(DW_ACCESS_public)
    4379              DW$520  .dwtag  DW_TAG_member, DW_AT_type(*DW$T$133)
    4380                      .dwattr DW$520, DW_AT_name("bit"), DW_AT_symbol_name("_bit")
    4381                      .dwattr DW$520, DW_AT_data_member_location[DW_OP_plus_uconst 0x0]
    4382                      .dwattr DW$520, DW_AT_accessibility(DW_ACCESS_public)
    4383                      .dwendtag DW$T$134
    4384              
    4385              
    4386              DW$T$136        .dwtag  DW_TAG_union_type
    4387                      .dwattr DW$T$136, DW_AT_name("PCLKCR1_REG")
    4388                      .dwattr DW$T$136, DW_AT_byte_size(0x01)
    4389              DW$521  .dwtag  DW_TAG_member, DW_AT_type(*DW$T$19)
    4390                      .dwattr DW$521, DW_AT_name("all"), DW_AT_symbol_name("_all")
    4391                      .dwattr DW$521, DW_AT_data_member_location[DW_OP_plus_uconst 0x0]
    4392                      .dwattr DW$521, DW_AT_accessibility(DW_ACCESS_public)
    4393              DW$522  .dwtag  DW_TAG_member, DW_AT_type(*DW$T$135)
    4394                      .dwattr DW$522, DW_AT_name("bit"), DW_AT_symbol_name("_bit")
    4395                      .dwattr DW$522, DW_AT_data_member_location[DW_OP_plus_uconst 0x0]
    4396                      .dwattr DW$522, DW_AT_accessibility(DW_ACCESS_public)
    4397                      .dwendtag DW$T$136
    4398              
    4399              
    4400              DW$T$138        .dwtag  DW_TAG_union_type
    4401                      .dwattr DW$T$138, DW_AT_name("LPMCR0_REG")
    4402                      .dwattr DW$T$138, DW_AT_byte_size(0x01)
    4403              DW$523  .dwtag  DW_TAG_member, DW_AT_type(*DW$T$19)
    4404                      .dwattr DW$523, DW_AT_name("all"), DW_AT_symbol_name("_all")
    4405                      .dwattr DW$523, DW_AT_data_member_location[DW_OP_plus_uconst 0x0]
    4406                      .dwattr DW$523, DW_AT_accessibility(DW_ACCESS_public)
    4407              DW$524  .dwtag  DW_TAG_member, DW_AT_type(*DW$T$137)
    4408                      .dwattr DW$524, DW_AT_name("bit"), DW_AT_symbol_name("_bit")
    4409                      .dwattr DW$524, DW_AT_data_member_location[DW_OP_plus_uconst 0x0]
    4410                      .dwattr DW$524, DW_AT_accessibility(DW_ACCESS_public)
TMS320C2000 COFF Assembler PC v4.1.0 Mon Dec 21 14:54:55 2009

Tools Copyright (c) 1996-2005 Texas Instruments Incorporated
C:\DOCUME~1\ADMINI~1\LOCALS~1\Temp\TI9922                            PAGE   89

    4411                      .dwendtag DW$T$138
    4412              
    4413              
    4414              DW$T$140        .dwtag  DW_TAG_union_type
    4415                      .dwattr DW$T$140, DW_AT_name("PLLCR_REG")
    4416                      .dwattr DW$T$140, DW_AT_byte_size(0x01)
    4417              DW$525  .dwtag  DW_TAG_member, DW_AT_type(*DW$T$19)
    4418                      .dwattr DW$525, DW_AT_name("all"), DW_AT_symbol_name("_all")
    4419                      .dwattr DW$525, DW_AT_data_member_location[DW_OP_plus_uconst 0x0]
    4420                      .dwattr DW$525, DW_AT_accessibility(DW_ACCESS_public)
    4421              DW$526  .dwtag  DW_TAG_member, DW_AT_type(*DW$T$139)
    4422                      .dwattr DW$526, DW_AT_name("bit"), DW_AT_symbol_name("_bit")
    4423                      .dwattr DW$526, DW_AT_data_member_location[DW_OP_plus_uconst 0x0]
    4424                      .dwattr DW$526, DW_AT_accessibility(DW_ACCESS_public)
    4425                      .dwendtag DW$T$140
    4426              
    4427              DW$T$13 .dwtag  DW_TAG_base_type, DW_AT_name("unsigned long")
    4428                      .dwattr DW$T$13, DW_AT_encoding(DW_ATE_unsigned)
    4429                      .dwattr DW$T$13, DW_AT_byte_size(0x02)
    4430              
    4431              DW$T$20 .dwtag  DW_TAG_structure_type
    4432                      .dwattr DW$T$20, DW_AT_name("ADCTRL1_BITS")
    4433                      .dwattr DW$T$20, DW_AT_byte_size(0x01)
    4434              DW$527  .dwtag  DW_TAG_member, DW_AT_type(*DW$T$19)
    4435                      .dwattr DW$527, DW_AT_name("rsvd1"), DW_AT_symbol_name("_rsvd1")
    4436                      .dwattr DW$527, DW_AT_bit_offset(0x0c), DW_AT_bit_size(0x04)
    4437                      .dwattr DW$527, DW_AT_data_member_location[DW_OP_plus_uconst 0x0]
    4438                      .dwattr DW$527, DW_AT_accessibility(DW_ACCESS_public)
    4439              DW$528  .dwtag  DW_TAG_member, DW_AT_type(*DW$T$19)
    4440                      .dwattr DW$528, DW_AT_name("SEQ_CASC"), DW_AT_symbol_name("_SEQ_CASC")
    4441                      .dwattr DW$528, DW_AT_bit_offset(0x0b), DW_AT_bit_size(0x01)
    4442                      .dwattr DW$528, DW_AT_data_member_location[DW_OP_plus_uconst 0x0]
    4443                      .dwattr DW$528, DW_AT_accessibility(DW_ACCESS_public)
    4444              DW$529  .dwtag  DW_TAG_member, DW_AT_type(*DW$T$19)
    4445                      .dwattr DW$529, DW_AT_name("SEQ_OVRD"), DW_AT_symbol_name("_SEQ_OVRD")
    4446                      .dwattr DW$529, DW_AT_bit_offset(0x0a), DW_AT_bit_size(0x01)
    4447                      .dwattr DW$529, DW_AT_data_member_location[DW_OP_plus_uconst 0x0]
    4448                      .dwattr DW$529, DW_AT_accessibility(DW_ACCESS_public)
    4449              DW$530  .dwtag  DW_TAG_member, DW_AT_type(*DW$T$19)
    4450                      .dwattr DW$530, DW_AT_name("CONT_RUN"), DW_AT_symbol_name("_CONT_RUN")
    4451                      .dwattr DW$530, DW_AT_bit_offset(0x09), DW_AT_bit_size(0x01)
    4452                      .dwattr DW$530, DW_AT_data_member_location[DW_OP_plus_uconst 0x0]
    4453                      .dwattr DW$530, DW_AT_accessibility(DW_ACCESS_public)
    4454              DW$531  .dwtag  DW_TAG_member, DW_AT_type(*DW$T$19)
    4455                      .dwattr DW$531, DW_AT_name("CPS"), DW_AT_symbol_name("_CPS")
    4456                      .dwattr DW$531, DW_AT_bit_offset(0x08), DW_AT_bit_size(0x01)
    4457                      .dwattr DW$531, DW_AT_data_member_location[DW_OP_plus_uconst 0x0]
    4458                      .dwattr DW$531, DW_AT_accessibility(DW_ACCESS_public)
    4459              DW$532  .dwtag  DW_TAG_member, DW_AT_type(*DW$T$19)
    4460                      .dwattr DW$532, DW_AT_name("ACQ_PS"), DW_AT_symbol_name("_ACQ_PS")
    4461                      .dwattr DW$532, DW_AT_bit_offset(0x04), DW_AT_bit_size(0x04)
    4462                      .dwattr DW$532, DW_AT_data_member_location[DW_OP_plus_uconst 0x0]
    4463                      .dwattr DW$532, DW_AT_accessibility(DW_ACCESS_public)
    4464              DW$533  .dwtag  DW_TAG_member, DW_AT_type(*DW$T$19)
    4465                      .dwattr DW$533, DW_AT_name("SUSMOD"), DW_AT_symbol_name("_SUSMOD")
TMS320C2000 COFF Assembler PC v4.1.0 Mon Dec 21 14:54:55 2009

Tools Copyright (c) 1996-2005 Texas Instruments Incorporated
C:\DOCUME~1\ADMINI~1\LOCALS~1\Temp\TI9922                            PAGE   90

    4466                      .dwattr DW$533, DW_AT_bit_offset(0x02), DW_AT_bit_size(0x02)
    4467                      .dwattr DW$533, DW_AT_data_member_location[DW_OP_plus_uconst 0x0]
    4468                      .dwattr DW$533, DW_AT_accessibility(DW_ACCESS_public)
    4469              DW$534  .dwtag  DW_TAG_member, DW_AT_type(*DW$T$19)
    4470                      .dwattr DW$534, DW_AT_name("RESET"), DW_AT_symbol_name("_RESET")
    4471                      .dwattr DW$534, DW_AT_bit_offset(0x01), DW_AT_bit_size(0x01)
    4472                      .dwattr DW$534, DW_AT_data_member_location[DW_OP_plus_uconst 0x0]
    4473                      .dwattr DW$534, DW_AT_accessibility(DW_ACCESS_public)
    4474              DW$535  .dwtag  DW_TAG_member, DW_AT_type(*DW$T$19)
    4475                      .dwattr DW$535, DW_AT_name("rsvd2"), DW_AT_symbol_name("_rsvd2")
    4476                      .dwattr DW$535, DW_AT_bit_offset(0x00), DW_AT_bit_size(0x01)
    4477                      .dwattr DW$535, DW_AT_data_member_location[DW_OP_plus_uconst 0x0]
    4478                      .dwattr DW$535, DW_AT_accessibility(DW_ACCESS_public)
    4479                      .dwendtag DW$T$20
    4480              
    4481              
    4482              DW$T$22 .dwtag  DW_TAG_structure_type
    4483                      .dwattr DW$T$22, DW_AT_name("ADCTRL2_BITS")
    4484                      .dwattr DW$T$22, DW_AT_byte_size(0x01)
    4485              DW$536  .dwtag  DW_TAG_member, DW_AT_type(*DW$T$19)
    4486                      .dwattr DW$536, DW_AT_name("EPWM_SOCB_SEQ2"), DW_AT_symbol_name("_EPWM_SOCB_SEQ2")
    4487                      .dwattr DW$536, DW_AT_bit_offset(0x0f), DW_AT_bit_size(0x01)
    4488                      .dwattr DW$536, DW_AT_data_member_location[DW_OP_plus_uconst 0x0]
    4489                      .dwattr DW$536, DW_AT_accessibility(DW_ACCESS_public)
    4490              DW$537  .dwtag  DW_TAG_member, DW_AT_type(*DW$T$19)
    4491                      .dwattr DW$537, DW_AT_name("rsvd1"), DW_AT_symbol_name("_rsvd1")
    4492                      .dwattr DW$537, DW_AT_bit_offset(0x0e), DW_AT_bit_size(0x01)
    4493                      .dwattr DW$537, DW_AT_data_member_location[DW_OP_plus_uconst 0x0]
    4494                      .dwattr DW$537, DW_AT_accessibility(DW_ACCESS_public)
    4495              DW$538  .dwtag  DW_TAG_member, DW_AT_type(*DW$T$19)
    4496                      .dwattr DW$538, DW_AT_name("INT_MOD_SEQ2"), DW_AT_symbol_name("_INT_MOD_SEQ2")
    4497                      .dwattr DW$538, DW_AT_bit_offset(0x0d), DW_AT_bit_size(0x01)
    4498                      .dwattr DW$538, DW_AT_data_member_location[DW_OP_plus_uconst 0x0]
    4499                      .dwattr DW$538, DW_AT_accessibility(DW_ACCESS_public)
    4500              DW$539  .dwtag  DW_TAG_member, DW_AT_type(*DW$T$19)
    4501                      .dwattr DW$539, DW_AT_name("INT_ENA_SEQ2"), DW_AT_symbol_name("_INT_ENA_SEQ2")
    4502                      .dwattr DW$539, DW_AT_bit_offset(0x0c), DW_AT_bit_size(0x01)
    4503                      .dwattr DW$539, DW_AT_data_member_location[DW_OP_plus_uconst 0x0]
    4504                      .dwattr DW$539, DW_AT_accessibility(DW_ACCESS_public)
    4505              DW$540  .dwtag  DW_TAG_member, DW_AT_type(*DW$T$19)
    4506                      .dwattr DW$540, DW_AT_name("rsvd2"), DW_AT_symbol_name("_rsvd2")
    4507                      .dwattr DW$540, DW_AT_bit_offset(0x0b), DW_AT_bit_size(0x01)
    4508                      .dwattr DW$540, DW_AT_data_member_location[DW_OP_plus_uconst 0x0]
    4509                      .dwattr DW$540, DW_AT_accessibility(DW_ACCESS_public)
    4510              DW$541  .dwtag  DW_TAG_member, DW_AT_type(*DW$T$19)
    4511                      .dwattr DW$541, DW_AT_name("SOC_SEQ2"), DW_AT_symbol_name("_SOC_SEQ2")
    4512                      .dwattr DW$541, DW_AT_bit_offset(0x0a), DW_AT_bit_size(0x01)
    4513                      .dwattr DW$541, DW_AT_data_member_location[DW_OP_plus_uconst 0x0]
    4514                      .dwattr DW$541, DW_AT_accessibility(DW_ACCESS_public)
    4515              DW$542  .dwtag  DW_TAG_member, DW_AT_type(*DW$T$19)
    4516                      .dwattr DW$542, DW_AT_name("RST_SEQ2"), DW_AT_symbol_name("_RST_SEQ2")
    4517                      .dwattr DW$542, DW_AT_bit_offset(0x09), DW_AT_bit_size(0x01)
    4518                      .dwattr DW$542, DW_AT_data_member_location[DW_OP_plus_uconst 0x0]
    4519                      .dwattr DW$542, DW_AT_accessibility(DW_ACCESS_public)
    4520              DW$543  .dwtag  DW_TAG_member, DW_AT_type(*DW$T$19)
TMS320C2000 COFF Assembler PC v4.1.0 Mon Dec 21 14:54:55 2009

Tools Copyright (c) 1996-2005 Texas Instruments Incorporated
C:\DOCUME~1\ADMINI~1\LOCALS~1\Temp\TI9922                            PAGE   91

    4521                      .dwattr DW$543, DW_AT_name("EXT_SOC_SEQ1"), DW_AT_symbol_name("_EXT_SOC_SEQ1")
    4522                      .dwattr DW$543, DW_AT_bit_offset(0x08), DW_AT_bit_size(0x01)
    4523                      .dwattr DW$543, DW_AT_data_member_location[DW_OP_plus_uconst 0x0]
    4524                      .dwattr DW$543, DW_AT_accessibility(DW_ACCESS_public)
    4525              DW$544  .dwtag  DW_TAG_member, DW_AT_type(*DW$T$19)
    4526                      .dwattr DW$544, DW_AT_name("EPWM_SOCA_SEQ1"), DW_AT_symbol_name("_EPWM_SOCA_SEQ1")
    4527                      .dwattr DW$544, DW_AT_bit_offset(0x07), DW_AT_bit_size(0x01)
    4528                      .dwattr DW$544, DW_AT_data_member_location[DW_OP_plus_uconst 0x0]
    4529                      .dwattr DW$544, DW_AT_accessibility(DW_ACCESS_public)
    4530              DW$545  .dwtag  DW_TAG_member, DW_AT_type(*DW$T$19)
    4531                      .dwattr DW$545, DW_AT_name("rsvd3"), DW_AT_symbol_name("_rsvd3")
    4532                      .dwattr DW$545, DW_AT_bit_offset(0x06), DW_AT_bit_size(0x01)
    4533                      .dwattr DW$545, DW_AT_data_member_location[DW_OP_plus_uconst 0x0]
    4534                      .dwattr DW$545, DW_AT_accessibility(DW_ACCESS_public)
    4535              DW$546  .dwtag  DW_TAG_member, DW_AT_type(*DW$T$19)
    4536                      .dwattr DW$546, DW_AT_name("INT_MOD_SEQ1"), DW_AT_symbol_name("_INT_MOD_SEQ1")
    4537                      .dwattr DW$546, DW_AT_bit_offset(0x05), DW_AT_bit_size(0x01)
    4538                      .dwattr DW$546, DW_AT_data_member_location[DW_OP_plus_uconst 0x0]
    4539                      .dwattr DW$546, DW_AT_accessibility(DW_ACCESS_public)
    4540              DW$547  .dwtag  DW_TAG_member, DW_AT_type(*DW$T$19)
    4541                      .dwattr DW$547, DW_AT_name("INT_ENA_SEQ1"), DW_AT_symbol_name("_INT_ENA_SEQ1")
    4542                      .dwattr DW$547, DW_AT_bit_offset(0x04), DW_AT_bit_size(0x01)
    4543                      .dwattr DW$547, DW_AT_data_member_location[DW_OP_plus_uconst 0x0]
    4544                      .dwattr DW$547, DW_AT_accessibility(DW_ACCESS_public)
    4545              DW$548  .dwtag  DW_TAG_member, DW_AT_type(*DW$T$19)
    4546                      .dwattr DW$548, DW_AT_name("rsvd4"), DW_AT_symbol_name("_rsvd4")
    4547                      .dwattr DW$548, DW_AT_bit_offset(0x03), DW_AT_bit_size(0x01)
    4548                      .dwattr DW$548, DW_AT_data_member_location[DW_OP_plus_uconst 0x0]
    4549                      .dwattr DW$548, DW_AT_accessibility(DW_ACCESS_public)
    4550              DW$549  .dwtag  DW_TAG_member, DW_AT_type(*DW$T$19)
    4551                      .dwattr DW$549, DW_AT_name("SOC_SEQ1"), DW_AT_symbol_name("_SOC_SEQ1")
    4552                      .dwattr DW$549, DW_AT_bit_offset(0x02), DW_AT_bit_size(0x01)
    4553                      .dwattr DW$549, DW_AT_data_member_location[DW_OP_plus_uconst 0x0]
    4554                      .dwattr DW$549, DW_AT_accessibility(DW_ACCESS_public)
    4555              DW$550  .dwtag  DW_TAG_member, DW_AT_type(*DW$T$19)
    4556                      .dwattr DW$550, DW_AT_name("RST_SEQ1"), DW_AT_symbol_name("_RST_SEQ1")
    4557                      .dwattr DW$550, DW_AT_bit_offset(0x01), DW_AT_bit_size(0x01)
    4558                      .dwattr DW$550, DW_AT_data_member_location[DW_OP_plus_uconst 0x0]
    4559                      .dwattr DW$550, DW_AT_accessibility(DW_ACCESS_public)
    4560              DW$551  .dwtag  DW_TAG_member, DW_AT_type(*DW$T$19)
    4561                      .dwattr DW$551, DW_AT_name("EPWM_SOCB_SEQ"), DW_AT_symbol_name("_EPWM_SOCB_SEQ")
    4562                      .dwattr DW$551, DW_AT_bit_offset(0x00), DW_AT_bit_size(0x01)
    4563                      .dwattr DW$551, DW_AT_data_member_location[DW_OP_plus_uconst 0x0]
    4564                      .dwattr DW$551, DW_AT_accessibility(DW_ACCESS_public)
    4565                      .dwendtag DW$T$22
    4566              
    4567              
    4568              DW$T$24 .dwtag  DW_TAG_structure_type
    4569                      .dwattr DW$T$24, DW_AT_name("ADCMAXCONV_BITS")
    4570                      .dwattr DW$T$24, DW_AT_byte_size(0x01)
    4571              DW$552  .dwtag  DW_TAG_member, DW_AT_type(*DW$T$19)
    4572                      .dwattr DW$552, DW_AT_name("MAX_CONV1"), DW_AT_symbol_name("_MAX_CONV1")
    4573                      .dwattr DW$552, DW_AT_bit_offset(0x0c), DW_AT_bit_size(0x04)
    4574                      .dwattr DW$552, DW_AT_data_member_location[DW_OP_plus_uconst 0x0]
    4575                      .dwattr DW$552, DW_AT_accessibility(DW_ACCESS_public)
TMS320C2000 COFF Assembler PC v4.1.0 Mon Dec 21 14:54:55 2009

Tools Copyright (c) 1996-2005 Texas Instruments Incorporated
C:\DOCUME~1\ADMINI~1\LOCALS~1\Temp\TI9922                            PAGE   92

    4576              DW$553  .dwtag  DW_TAG_member, DW_AT_type(*DW$T$19)
    4577                      .dwattr DW$553, DW_AT_name("MAX_CONV2"), DW_AT_symbol_name("_MAX_CONV2")
    4578                      .dwattr DW$553, DW_AT_bit_offset(0x09), DW_AT_bit_size(0x03)
    4579                      .dwattr DW$553, DW_AT_data_member_location[DW_OP_plus_uconst 0x0]
    4580                      .dwattr DW$553, DW_AT_accessibility(DW_ACCESS_public)
    4581              DW$554  .dwtag  DW_TAG_member, DW_AT_type(*DW$T$19)
    4582                      .dwattr DW$554, DW_AT_name("rsvd1"), DW_AT_symbol_name("_rsvd1")
    4583                      .dwattr DW$554, DW_AT_bit_offset(0x00), DW_AT_bit_size(0x09)
    4584                      .dwattr DW$554, DW_AT_data_member_location[DW_OP_plus_uconst 0x0]
    4585                      .dwattr DW$554, DW_AT_accessibility(DW_ACCESS_public)
    4586                      .dwendtag DW$T$24
    4587              
    4588              
    4589              DW$T$26 .dwtag  DW_TAG_structure_type
    4590                      .dwattr DW$T$26, DW_AT_name("ADCCHSELSEQ1_BITS")
    4591                      .dwattr DW$T$26, DW_AT_byte_size(0x01)
    4592              DW$555  .dwtag  DW_TAG_member, DW_AT_type(*DW$T$19)
    4593                      .dwattr DW$555, DW_AT_name("CONV00"), DW_AT_symbol_name("_CONV00")
    4594                      .dwattr DW$555, DW_AT_bit_offset(0x0c), DW_AT_bit_size(0x04)
    4595                      .dwattr DW$555, DW_AT_data_member_location[DW_OP_plus_uconst 0x0]
    4596                      .dwattr DW$555, DW_AT_accessibility(DW_ACCESS_public)
    4597              DW$556  .dwtag  DW_TAG_member, DW_AT_type(*DW$T$19)
    4598                      .dwattr DW$556, DW_AT_name("CONV01"), DW_AT_symbol_name("_CONV01")
    4599                      .dwattr DW$556, DW_AT_bit_offset(0x08), DW_AT_bit_size(0x04)
    4600                      .dwattr DW$556, DW_AT_data_member_location[DW_OP_plus_uconst 0x0]
    4601                      .dwattr DW$556, DW_AT_accessibility(DW_ACCESS_public)
    4602              DW$557  .dwtag  DW_TAG_member, DW_AT_type(*DW$T$19)
    4603                      .dwattr DW$557, DW_AT_name("CONV02"), DW_AT_symbol_name("_CONV02")
    4604                      .dwattr DW$557, DW_AT_bit_offset(0x04), DW_AT_bit_size(0x04)
    4605                      .dwattr DW$557, DW_AT_data_member_location[DW_OP_plus_uconst 0x0]
    4606                      .dwattr DW$557, DW_AT_accessibility(DW_ACCESS_public)
    4607              DW$558  .dwtag  DW_TAG_member, DW_AT_type(*DW$T$19)
    4608                      .dwattr DW$558, DW_AT_name("CONV03"), DW_AT_symbol_name("_CONV03")
    4609                      .dwattr DW$558, DW_AT_bit_offset(0x00), DW_AT_bit_size(0x04)
    4610                      .dwattr DW$558, DW_AT_data_member_location[DW_OP_plus_uconst 0x0]
    4611                      .dwattr DW$558, DW_AT_accessibility(DW_ACCESS_public)
    4612                      .dwendtag DW$T$26
    4613              
    4614              
    4615              DW$T$28 .dwtag  DW_TAG_structure_type
    4616                      .dwattr DW$T$28, DW_AT_name("ADCCHSELSEQ2_BITS")
    4617                      .dwattr DW$T$28, DW_AT_byte_size(0x01)
    4618              DW$559  .dwtag  DW_TAG_member, DW_AT_type(*DW$T$19)
    4619                      .dwattr DW$559, DW_AT_name("CONV04"), DW_AT_symbol_name("_CONV04")
    4620                      .dwattr DW$559, DW_AT_bit_offset(0x0c), DW_AT_bit_size(0x04)
    4621                      .dwattr DW$559, DW_AT_data_member_location[DW_OP_plus_uconst 0x0]
    4622                      .dwattr DW$559, DW_AT_accessibility(DW_ACCESS_public)
    4623              DW$560  .dwtag  DW_TAG_member, DW_AT_type(*DW$T$19)
    4624                      .dwattr DW$560, DW_AT_name("CONV05"), DW_AT_symbol_name("_CONV05")
    4625                      .dwattr DW$560, DW_AT_bit_offset(0x08), DW_AT_bit_size(0x04)
    4626                      .dwattr DW$560, DW_AT_data_member_location[DW_OP_plus_uconst 0x0]
    4627                      .dwattr DW$560, DW_AT_accessibility(DW_ACCESS_public)
    4628              DW$561  .dwtag  DW_TAG_member, DW_AT_type(*DW$T$19)
    4629                      .dwattr DW$561, DW_AT_name("CONV06"), DW_AT_symbol_name("_CONV06")
    4630                      .dwattr DW$561, DW_AT_bit_offset(0x04), DW_AT_bit_size(0x04)
TMS320C2000 COFF Assembler PC v4.1.0 Mon Dec 21 14:54:55 2009

Tools Copyright (c) 1996-2005 Texas Instruments Incorporated
C:\DOCUME~1\ADMINI~1\LOCALS~1\Temp\TI9922                            PAGE   93

    4631                      .dwattr DW$561, DW_AT_data_member_location[DW_OP_plus_uconst 0x0]
    4632                      .dwattr DW$561, DW_AT_accessibility(DW_ACCESS_public)
    4633              DW$562  .dwtag  DW_TAG_member, DW_AT_type(*DW$T$19)
    4634                      .dwattr DW$562, DW_AT_name("CONV07"), DW_AT_symbol_name("_CONV07")
    4635                      .dwattr DW$562, DW_AT_bit_offset(0x00), DW_AT_bit_size(0x04)
    4636                      .dwattr DW$562, DW_AT_data_member_location[DW_OP_plus_uconst 0x0]
    4637                      .dwattr DW$562, DW_AT_accessibility(DW_ACCESS_public)
    4638                      .dwendtag DW$T$28
    4639              
    4640              
    4641              DW$T$30 .dwtag  DW_TAG_structure_type
    4642                      .dwattr DW$T$30, DW_AT_name("ADCCHSELSEQ3_BITS")
    4643                      .dwattr DW$T$30, DW_AT_byte_size(0x01)
    4644              DW$563  .dwtag  DW_TAG_member, DW_AT_type(*DW$T$19)
    4645                      .dwattr DW$563, DW_AT_name("CONV08"), DW_AT_symbol_name("_CONV08")
    4646                      .dwattr DW$563, DW_AT_bit_offset(0x0c), DW_AT_bit_size(0x04)
    4647                      .dwattr DW$563, DW_AT_data_member_location[DW_OP_plus_uconst 0x0]
    4648                      .dwattr DW$563, DW_AT_accessibility(DW_ACCESS_public)
    4649              DW$564  .dwtag  DW_TAG_member, DW_AT_type(*DW$T$19)
    4650                      .dwattr DW$564, DW_AT_name("CONV09"), DW_AT_symbol_name("_CONV09")
    4651                      .dwattr DW$564, DW_AT_bit_offset(0x08), DW_AT_bit_size(0x04)
    4652                      .dwattr DW$564, DW_AT_data_member_location[DW_OP_plus_uconst 0x0]
    4653                      .dwattr DW$564, DW_AT_accessibility(DW_ACCESS_public)
    4654              DW$565  .dwtag  DW_TAG_member, DW_AT_type(*DW$T$19)
    4655                      .dwattr DW$565, DW_AT_name("CONV10"), DW_AT_symbol_name("_CONV10")
    4656                      .dwattr DW$565, DW_AT_bit_offset(0x04), DW_AT_bit_size(0x04)
    4657                      .dwattr DW$565, DW_AT_data_member_location[DW_OP_plus_uconst 0x0]
    4658                      .dwattr DW$565, DW_AT_accessibility(DW_ACCESS_public)
    4659              DW$566  .dwtag  DW_TAG_member, DW_AT_type(*DW$T$19)
    4660                      .dwattr DW$566, DW_AT_name("CONV11"), DW_AT_symbol_name("_CONV11")
    4661                      .dwattr DW$566, DW_AT_bit_offset(0x00), DW_AT_bit_size(0x04)
    4662                      .dwattr DW$566, DW_AT_data_member_location[DW_OP_plus_uconst 0x0]
    4663                      .dwattr DW$566, DW_AT_accessibility(DW_ACCESS_public)
    4664                      .dwendtag DW$T$30
    4665              
    4666              
    4667              DW$T$32 .dwtag  DW_TAG_structure_type
    4668                      .dwattr DW$T$32, DW_AT_name("ADCCHSELSEQ4_BITS")
    4669                      .dwattr DW$T$32, DW_AT_byte_size(0x01)
    4670              DW$567  .dwtag  DW_TAG_member, DW_AT_type(*DW$T$19)
    4671                      .dwattr DW$567, DW_AT_name("CONV12"), DW_AT_symbol_name("_CONV12")
    4672                      .dwattr DW$567, DW_AT_bit_offset(0x0c), DW_AT_bit_size(0x04)
    4673                      .dwattr DW$567, DW_AT_data_member_location[DW_OP_plus_uconst 0x0]
    4674                      .dwattr DW$567, DW_AT_accessibility(DW_ACCESS_public)
    4675              DW$568  .dwtag  DW_TAG_member, DW_AT_type(*DW$T$19)
    4676                      .dwattr DW$568, DW_AT_name("CONV13"), DW_AT_symbol_name("_CONV13")
    4677                      .dwattr DW$568, DW_AT_bit_offset(0x08), DW_AT_bit_size(0x04)
    4678                      .dwattr DW$568, DW_AT_data_member_location[DW_OP_plus_uconst 0x0]
    4679                      .dwattr DW$568, DW_AT_accessibility(DW_ACCESS_public)
    4680              DW$569  .dwtag  DW_TAG_member, DW_AT_type(*DW$T$19)
    4681                      .dwattr DW$569, DW_AT_name("CONV14"), DW_AT_symbol_name("_CONV14")
    4682                      .dwattr DW$569, DW_AT_bit_offset(0x04), DW_AT_bit_size(0x04)
    4683                      .dwattr DW$569, DW_AT_data_member_location[DW_OP_plus_uconst 0x0]
    4684                      .dwattr DW$569, DW_AT_accessibility(DW_ACCESS_public)
    4685              DW$570  .dwtag  DW_TAG_member, DW_AT_type(*DW$T$19)
TMS320C2000 COFF Assembler PC v4.1.0 Mon Dec 21 14:54:55 2009

Tools Copyright (c) 1996-2005 Texas Instruments Incorporated
C:\DOCUME~1\ADMINI~1\LOCALS~1\Temp\TI9922                            PAGE   94

    4686                      .dwattr DW$570, DW_AT_name("CONV15"), DW_AT_symbol_name("_CONV15")
    4687                      .dwattr DW$570, DW_AT_bit_offset(0x00), DW_AT_bit_size(0x04)
    4688                      .dwattr DW$570, DW_AT_data_member_location[DW_OP_plus_uconst 0x0]
    4689                      .dwattr DW$570, DW_AT_accessibility(DW_ACCESS_public)
    4690                      .dwendtag DW$T$32
    4691              
    4692              
    4693              DW$T$34 .dwtag  DW_TAG_structure_type
    4694                      .dwattr DW$T$34, DW_AT_name("ADCASEQSR_BITS")
    4695                      .dwattr DW$T$34, DW_AT_byte_size(0x01)
    4696              DW$571  .dwtag  DW_TAG_member, DW_AT_type(*DW$T$19)
    4697                      .dwattr DW$571, DW_AT_name("SEQ1_STATE"), DW_AT_symbol_name("_SEQ1_STATE")
    4698                      .dwattr DW$571, DW_AT_bit_offset(0x0c), DW_AT_bit_size(0x04)
    4699                      .dwattr DW$571, DW_AT_data_member_location[DW_OP_plus_uconst 0x0]
    4700                      .dwattr DW$571, DW_AT_accessibility(DW_ACCESS_public)
    4701              DW$572  .dwtag  DW_TAG_member, DW_AT_type(*DW$T$19)
    4702                      .dwattr DW$572, DW_AT_name("SEQ2_STATE"), DW_AT_symbol_name("_SEQ2_STATE")
    4703                      .dwattr DW$572, DW_AT_bit_offset(0x09), DW_AT_bit_size(0x03)
    4704                      .dwattr DW$572, DW_AT_data_member_location[DW_OP_plus_uconst 0x0]
    4705                      .dwattr DW$572, DW_AT_accessibility(DW_ACCESS_public)
    4706              DW$573  .dwtag  DW_TAG_member, DW_AT_type(*DW$T$19)
    4707                      .dwattr DW$573, DW_AT_name("rsvd1"), DW_AT_symbol_name("_rsvd1")
    4708                      .dwattr DW$573, DW_AT_bit_offset(0x08), DW_AT_bit_size(0x01)
    4709                      .dwattr DW$573, DW_AT_data_member_location[DW_OP_plus_uconst 0x0]
    4710                      .dwattr DW$573, DW_AT_accessibility(DW_ACCESS_public)
    4711              DW$574  .dwtag  DW_TAG_member, DW_AT_type(*DW$T$19)
    4712                      .dwattr DW$574, DW_AT_name("SEQ_CNTR"), DW_AT_symbol_name("_SEQ_CNTR")
    4713                      .dwattr DW$574, DW_AT_bit_offset(0x04), DW_AT_bit_size(0x04)
    4714                      .dwattr DW$574, DW_AT_data_member_location[DW_OP_plus_uconst 0x0]
    4715                      .dwattr DW$574, DW_AT_accessibility(DW_ACCESS_public)
    4716              DW$575  .dwtag  DW_TAG_member, DW_AT_type(*DW$T$19)
    4717                      .dwattr DW$575, DW_AT_name("rsvd2"), DW_AT_symbol_name("_rsvd2")
    4718                      .dwattr DW$575, DW_AT_bit_offset(0x00), DW_AT_bit_size(0x04)
    4719                      .dwattr DW$575, DW_AT_data_member_location[DW_OP_plus_uconst 0x0]
    4720                      .dwattr DW$575, DW_AT_accessibility(DW_ACCESS_public)
    4721                      .dwendtag DW$T$34
    4722              
    4723              
    4724              DW$T$36 .dwtag  DW_TAG_structure_type
    4725                      .dwattr DW$T$36, DW_AT_name("ADCTRL3_BITS")
    4726                      .dwattr DW$T$36, DW_AT_byte_size(0x01)
    4727              DW$576  .dwtag  DW_TAG_member, DW_AT_type(*DW$T$19)
    4728                      .dwattr DW$576, DW_AT_name("SMODE_SEL"), DW_AT_symbol_name("_SMODE_SEL")
    4729                      .dwattr DW$576, DW_AT_bit_offset(0x0f), DW_AT_bit_size(0x01)
    4730                      .dwattr DW$576, DW_AT_data_member_location[DW_OP_plus_uconst 0x0]
    4731                      .dwattr DW$576, DW_AT_accessibility(DW_ACCESS_public)
    4732              DW$577  .dwtag  DW_TAG_member, DW_AT_type(*DW$T$19)
    4733                      .dwattr DW$577, DW_AT_name("ADCCLKPS"), DW_AT_symbol_name("_ADCCLKPS")
    4734                      .dwattr DW$577, DW_AT_bit_offset(0x0b), DW_AT_bit_size(0x04)
    4735                      .dwattr DW$577, DW_AT_data_member_location[DW_OP_plus_uconst 0x0]
    4736                      .dwattr DW$577, DW_AT_accessibility(DW_ACCESS_public)
    4737              DW$578  .dwtag  DW_TAG_member, DW_AT_type(*DW$T$19)
    4738                      .dwattr DW$578, DW_AT_name("ADCPWDN"), DW_AT_symbol_name("_ADCPWDN")
    4739                      .dwattr DW$578, DW_AT_bit_offset(0x0a), DW_AT_bit_size(0x01)
    4740                      .dwattr DW$578, DW_AT_data_member_location[DW_OP_plus_uconst 0x0]
TMS320C2000 COFF Assembler PC v4.1.0 Mon Dec 21 14:54:55 2009

Tools Copyright (c) 1996-2005 Texas Instruments Incorporated
C:\DOCUME~1\ADMINI~1\LOCALS~1\Temp\TI9922                            PAGE   95

    4741                      .dwattr DW$578, DW_AT_accessibility(DW_ACCESS_public)
    4742              DW$579  .dwtag  DW_TAG_member, DW_AT_type(*DW$T$19)
    4743                      .dwattr DW$579, DW_AT_name("ADCBGRFDN"), DW_AT_symbol_name("_ADCBGRFDN")
    4744                      .dwattr DW$579, DW_AT_bit_offset(0x08), DW_AT_bit_size(0x02)
    4745                      .dwattr DW$579, DW_AT_data_member_location[DW_OP_plus_uconst 0x0]
    4746                      .dwattr DW$579, DW_AT_accessibility(DW_ACCESS_public)
    4747              DW$580  .dwtag  DW_TAG_member, DW_AT_type(*DW$T$19)
    4748                      .dwattr DW$580, DW_AT_name("rsvd1"), DW_AT_symbol_name("_rsvd1")
    4749                      .dwattr DW$580, DW_AT_bit_offset(0x00), DW_AT_bit_size(0x08)
    4750                      .dwattr DW$580, DW_AT_data_member_location[DW_OP_plus_uconst 0x0]
    4751                      .dwattr DW$580, DW_AT_accessibility(DW_ACCESS_public)
    4752                      .dwendtag DW$T$36
    4753              
    4754              
    4755              DW$T$38 .dwtag  DW_TAG_structure_type
    4756                      .dwattr DW$T$38, DW_AT_name("ADCST_BITS")
    4757                      .dwattr DW$T$38, DW_AT_byte_size(0x01)
    4758              DW$581  .dwtag  DW_TAG_member, DW_AT_type(*DW$T$19)
    4759                      .dwattr DW$581, DW_AT_name("INT_SEQ1"), DW_AT_symbol_name("_INT_SEQ1")
    4760                      .dwattr DW$581, DW_AT_bit_offset(0x0f), DW_AT_bit_size(0x01)
    4761                      .dwattr DW$581, DW_AT_data_member_location[DW_OP_plus_uconst 0x0]
    4762                      .dwattr DW$581, DW_AT_accessibility(DW_ACCESS_public)
    4763              DW$582  .dwtag  DW_TAG_member, DW_AT_type(*DW$T$19)
    4764                      .dwattr DW$582, DW_AT_name("INT_SEQ2"), DW_AT_symbol_name("_INT_SEQ2")
    4765                      .dwattr DW$582, DW_AT_bit_offset(0x0e), DW_AT_bit_size(0x01)
    4766                      .dwattr DW$582, DW_AT_data_member_location[DW_OP_plus_uconst 0x0]
    4767                      .dwattr DW$582, DW_AT_accessibility(DW_ACCESS_public)
    4768              DW$583  .dwtag  DW_TAG_member, DW_AT_type(*DW$T$19)
    4769                      .dwattr DW$583, DW_AT_name("SEQ1_BSY"), DW_AT_symbol_name("_SEQ1_BSY")
    4770                      .dwattr DW$583, DW_AT_bit_offset(0x0d), DW_AT_bit_size(0x01)
    4771                      .dwattr DW$583, DW_AT_data_member_location[DW_OP_plus_uconst 0x0]
    4772                      .dwattr DW$583, DW_AT_accessibility(DW_ACCESS_public)
    4773              DW$584  .dwtag  DW_TAG_member, DW_AT_type(*DW$T$19)
    4774                      .dwattr DW$584, DW_AT_name("SEQ2_BSY"), DW_AT_symbol_name("_SEQ2_BSY")
    4775                      .dwattr DW$584, DW_AT_bit_offset(0x0c), DW_AT_bit_size(0x01)
    4776                      .dwattr DW$584, DW_AT_data_member_location[DW_OP_plus_uconst 0x0]
    4777                      .dwattr DW$584, DW_AT_accessibility(DW_ACCESS_public)
    4778              DW$585  .dwtag  DW_TAG_member, DW_AT_type(*DW$T$19)
    4779                      .dwattr DW$585, DW_AT_name("INT_SEQ1_CLR"), DW_AT_symbol_name("_INT_SEQ1_CLR")
    4780                      .dwattr DW$585, DW_AT_bit_offset(0x0b), DW_AT_bit_size(0x01)
    4781                      .dwattr DW$585, DW_AT_data_member_location[DW_OP_plus_uconst 0x0]
    4782                      .dwattr DW$585, DW_AT_accessibility(DW_ACCESS_public)
    4783              DW$586  .dwtag  DW_TAG_member, DW_AT_type(*DW$T$19)
    4784                      .dwattr DW$586, DW_AT_name("INT_SEQ2_CLR"), DW_AT_symbol_name("_INT_SEQ2_CLR")
    4785                      .dwattr DW$586, DW_AT_bit_offset(0x0a), DW_AT_bit_size(0x01)
    4786                      .dwattr DW$586, DW_AT_data_member_location[DW_OP_plus_uconst 0x0]
    4787                      .dwattr DW$586, DW_AT_accessibility(DW_ACCESS_public)
    4788              DW$587  .dwtag  DW_TAG_member, DW_AT_type(*DW$T$19)
    4789                      .dwattr DW$587, DW_AT_name("EOS_BUF1"), DW_AT_symbol_name("_EOS_BUF1")
    4790                      .dwattr DW$587, DW_AT_bit_offset(0x09), DW_AT_bit_size(0x01)
    4791                      .dwattr DW$587, DW_AT_data_member_location[DW_OP_plus_uconst 0x0]
    4792                      .dwattr DW$587, DW_AT_accessibility(DW_ACCESS_public)
    4793              DW$588  .dwtag  DW_TAG_member, DW_AT_type(*DW$T$19)
    4794                      .dwattr DW$588, DW_AT_name("EOS_BUF2"), DW_AT_symbol_name("_EOS_BUF2")
    4795                      .dwattr DW$588, DW_AT_bit_offset(0x08), DW_AT_bit_size(0x01)
TMS320C2000 COFF Assembler PC v4.1.0 Mon Dec 21 14:54:55 2009

Tools Copyright (c) 1996-2005 Texas Instruments Incorporated
C:\DOCUME~1\ADMINI~1\LOCALS~1\Temp\TI9922                            PAGE   96

    4796                      .dwattr DW$588, DW_AT_data_member_location[DW_OP_plus_uconst 0x0]
    4797                      .dwattr DW$588, DW_AT_accessibility(DW_ACCESS_public)
    4798              DW$589  .dwtag  DW_TAG_member, DW_AT_type(*DW$T$19)
    4799                      .dwattr DW$589, DW_AT_name("rsvd1"), DW_AT_symbol_name("_rsvd1")
    4800                      .dwattr DW$589, DW_AT_bit_offset(0x00), DW_AT_bit_size(0x08)
    4801                      .dwattr DW$589, DW_AT_data_member_location[DW_OP_plus_uconst 0x0]
    4802                      .dwattr DW$589, DW_AT_accessibility(DW_ACCESS_public)
    4803                      .dwendtag DW$T$38
    4804              
    4805              
    4806              DW$T$40 .dwtag  DW_TAG_structure_type
    4807                      .dwattr DW$T$40, DW_AT_name("ADCREFSEL_BITS")
    4808                      .dwattr DW$T$40, DW_AT_byte_size(0x01)
    4809              DW$590  .dwtag  DW_TAG_member, DW_AT_type(*DW$T$19)
    4810                      .dwattr DW$590, DW_AT_name("rsvd1"), DW_AT_symbol_name("_rsvd1")
    4811                      .dwattr DW$590, DW_AT_bit_offset(0x02), DW_AT_bit_size(0x0e)
    4812                      .dwattr DW$590, DW_AT_data_member_location[DW_OP_plus_uconst 0x0]
    4813                      .dwattr DW$590, DW_AT_accessibility(DW_ACCESS_public)
    4814              DW$591  .dwtag  DW_TAG_member, DW_AT_type(*DW$T$19)
    4815                      .dwattr DW$591, DW_AT_name("REF_SEL"), DW_AT_symbol_name("_REF_SEL")
    4816                      .dwattr DW$591, DW_AT_bit_offset(0x00), DW_AT_bit_size(0x02)
    4817                      .dwattr DW$591, DW_AT_data_member_location[DW_OP_plus_uconst 0x0]
    4818                      .dwattr DW$591, DW_AT_accessibility(DW_ACCESS_public)
    4819                      .dwendtag DW$T$40
    4820              
    4821              
    4822              DW$T$43 .dwtag  DW_TAG_structure_type
    4823                      .dwattr DW$T$43, DW_AT_name("ADCOFFTRIM_BITS")
    4824                      .dwattr DW$T$43, DW_AT_byte_size(0x01)
    4825              DW$592  .dwtag  DW_TAG_member, DW_AT_type(*DW$T$42)
    4826                      .dwattr DW$592, DW_AT_name("OFFSET_TRIM"), DW_AT_symbol_name("_OFFSET_TRIM")
    4827                      .dwattr DW$592, DW_AT_bit_offset(0x07), DW_AT_bit_size(0x09)
    4828                      .dwattr DW$592, DW_AT_data_member_location[DW_OP_plus_uconst 0x0]
    4829                      .dwattr DW$592, DW_AT_accessibility(DW_ACCESS_public)
    4830              DW$593  .dwtag  DW_TAG_member, DW_AT_type(*DW$T$19)
    4831                      .dwattr DW$593, DW_AT_name("rsvd1"), DW_AT_symbol_name("_rsvd1")
    4832                      .dwattr DW$593, DW_AT_bit_offset(0x00), DW_AT_bit_size(0x07)
    4833                      .dwattr DW$593, DW_AT_data_member_location[DW_OP_plus_uconst 0x0]
    4834                      .dwattr DW$593, DW_AT_accessibility(DW_ACCESS_public)
    4835                      .dwendtag DW$T$43
    4836              
    4837              
    4838              DW$T$46 .dwtag  DW_TAG_structure_type
    4839                      .dwattr DW$T$46, DW_AT_name("TBCTL_BITS")
    4840                      .dwattr DW$T$46, DW_AT_byte_size(0x01)
    4841              DW$594  .dwtag  DW_TAG_member, DW_AT_type(*DW$T$19)
    4842                      .dwattr DW$594, DW_AT_name("CTRMODE"), DW_AT_symbol_name("_CTRMODE")
    4843                      .dwattr DW$594, DW_AT_bit_offset(0x0e), DW_AT_bit_size(0x02)
    4844                      .dwattr DW$594, DW_AT_data_member_location[DW_OP_plus_uconst 0x0]
    4845                      .dwattr DW$594, DW_AT_accessibility(DW_ACCESS_public)
    4846              DW$595  .dwtag  DW_TAG_member, DW_AT_type(*DW$T$19)
    4847                      .dwattr DW$595, DW_AT_name("PHSEN"), DW_AT_symbol_name("_PHSEN")
    4848                      .dwattr DW$595, DW_AT_bit_offset(0x0d), DW_AT_bit_size(0x01)
    4849                      .dwattr DW$595, DW_AT_data_member_location[DW_OP_plus_uconst 0x0]
    4850                      .dwattr DW$595, DW_AT_accessibility(DW_ACCESS_public)
TMS320C2000 COFF Assembler PC v4.1.0 Mon Dec 21 14:54:55 2009

Tools Copyright (c) 1996-2005 Texas Instruments Incorporated
C:\DOCUME~1\ADMINI~1\LOCALS~1\Temp\TI9922                            PAGE   97

    4851              DW$596  .dwtag  DW_TAG_member, DW_AT_type(*DW$T$19)
    4852                      .dwattr DW$596, DW_AT_name("PRDLD"), DW_AT_symbol_name("_PRDLD")
    4853                      .dwattr DW$596, DW_AT_bit_offset(0x0c), DW_AT_bit_size(0x01)
    4854                      .dwattr DW$596, DW_AT_data_member_location[DW_OP_plus_uconst 0x0]
    4855                      .dwattr DW$596, DW_AT_accessibility(DW_ACCESS_public)
    4856              DW$597  .dwtag  DW_TAG_member, DW_AT_type(*DW$T$19)
    4857                      .dwattr DW$597, DW_AT_name("SYNCOSEL"), DW_AT_symbol_name("_SYNCOSEL")
    4858                      .dwattr DW$597, DW_AT_bit_offset(0x0a), DW_AT_bit_size(0x02)
    4859                      .dwattr DW$597, DW_AT_data_member_location[DW_OP_plus_uconst 0x0]
    4860                      .dwattr DW$597, DW_AT_accessibility(DW_ACCESS_public)
    4861              DW$598  .dwtag  DW_TAG_member, DW_AT_type(*DW$T$19)
    4862                      .dwattr DW$598, DW_AT_name("SWFSYNC"), DW_AT_symbol_name("_SWFSYNC")
    4863                      .dwattr DW$598, DW_AT_bit_offset(0x09), DW_AT_bit_size(0x01)
    4864                      .dwattr DW$598, DW_AT_data_member_location[DW_OP_plus_uconst 0x0]
    4865                      .dwattr DW$598, DW_AT_accessibility(DW_ACCESS_public)
    4866              DW$599  .dwtag  DW_TAG_member, DW_AT_type(*DW$T$19)
    4867                      .dwattr DW$599, DW_AT_name("HSPCLKDIV"), DW_AT_symbol_name("_HSPCLKDIV")
    4868                      .dwattr DW$599, DW_AT_bit_offset(0x06), DW_AT_bit_size(0x03)
    4869                      .dwattr DW$599, DW_AT_data_member_location[DW_OP_plus_uconst 0x0]
    4870                      .dwattr DW$599, DW_AT_accessibility(DW_ACCESS_public)
    4871              DW$600  .dwtag  DW_TAG_member, DW_AT_type(*DW$T$19)
    4872                      .dwattr DW$600, DW_AT_name("CLKDIV"), DW_AT_symbol_name("_CLKDIV")
    4873                      .dwattr DW$600, DW_AT_bit_offset(0x03), DW_AT_bit_size(0x03)
    4874                      .dwattr DW$600, DW_AT_data_member_location[DW_OP_plus_uconst 0x0]
    4875                      .dwattr DW$600, DW_AT_accessibility(DW_ACCESS_public)
    4876              DW$601  .dwtag  DW_TAG_member, DW_AT_type(*DW$T$19)
    4877                      .dwattr DW$601, DW_AT_name("PHSDIR"), DW_AT_symbol_name("_PHSDIR")
    4878                      .dwattr DW$601, DW_AT_bit_offset(0x02), DW_AT_bit_size(0x01)
    4879                      .dwattr DW$601, DW_AT_data_member_location[DW_OP_plus_uconst 0x0]
    4880                      .dwattr DW$601, DW_AT_accessibility(DW_ACCESS_public)
    4881              DW$602  .dwtag  DW_TAG_member, DW_AT_type(*DW$T$19)
    4882                      .dwattr DW$602, DW_AT_name("FREE_SOFT"), DW_AT_symbol_name("_FREE_SOFT")
    4883                      .dwattr DW$602, DW_AT_bit_offset(0x00), DW_AT_bit_size(0x02)
    4884                      .dwattr DW$602, DW_AT_data_member_location[DW_OP_plus_uconst 0x0]
    4885                      .dwattr DW$602, DW_AT_accessibility(DW_ACCESS_public)
    4886                      .dwendtag DW$T$46
    4887              
    4888              
    4889              DW$T$48 .dwtag  DW_TAG_structure_type
    4890                      .dwattr DW$T$48, DW_AT_name("TBSTS_BITS")
    4891                      .dwattr DW$T$48, DW_AT_byte_size(0x01)
    4892              DW$603  .dwtag  DW_TAG_member, DW_AT_type(*DW$T$19)
    4893                      .dwattr DW$603, DW_AT_name("CTRDIR"), DW_AT_symbol_name("_CTRDIR")
    4894                      .dwattr DW$603, DW_AT_bit_offset(0x0f), DW_AT_bit_size(0x01)
    4895                      .dwattr DW$603, DW_AT_data_member_location[DW_OP_plus_uconst 0x0]
    4896                      .dwattr DW$603, DW_AT_accessibility(DW_ACCESS_public)
    4897              DW$604  .dwtag  DW_TAG_member, DW_AT_type(*DW$T$19)
    4898                      .dwattr DW$604, DW_AT_name("SYNCI"), DW_AT_symbol_name("_SYNCI")
    4899                      .dwattr DW$604, DW_AT_bit_offset(0x0e), DW_AT_bit_size(0x01)
    4900                      .dwattr DW$604, DW_AT_data_member_location[DW_OP_plus_uconst 0x0]
    4901                      .dwattr DW$604, DW_AT_accessibility(DW_ACCESS_public)
    4902              DW$605  .dwtag  DW_TAG_member, DW_AT_type(*DW$T$19)
    4903                      .dwattr DW$605, DW_AT_name("CTRMAX"), DW_AT_symbol_name("_CTRMAX")
    4904                      .dwattr DW$605, DW_AT_bit_offset(0x0d), DW_AT_bit_size(0x01)
    4905                      .dwattr DW$605, DW_AT_data_member_location[DW_OP_plus_uconst 0x0]
TMS320C2000 COFF Assembler PC v4.1.0 Mon Dec 21 14:54:55 2009

Tools Copyright (c) 1996-2005 Texas Instruments Incorporated
C:\DOCUME~1\ADMINI~1\LOCALS~1\Temp\TI9922                            PAGE   98

    4906                      .dwattr DW$605, DW_AT_accessibility(DW_ACCESS_public)
    4907              DW$606  .dwtag  DW_TAG_member, DW_AT_type(*DW$T$19)
    4908                      .dwattr DW$606, DW_AT_name("rsvd1"), DW_AT_symbol_name("_rsvd1")
    4909                      .dwattr DW$606, DW_AT_bit_offset(0x00), DW_AT_bit_size(0x0d)
    4910                      .dwattr DW$606, DW_AT_data_member_location[DW_OP_plus_uconst 0x0]
    4911                      .dwattr DW$606, DW_AT_accessibility(DW_ACCESS_public)
    4912                      .dwendtag DW$T$48
    4913              
    4914              
    4915              DW$T$50 .dwtag  DW_TAG_structure_type
    4916                      .dwattr DW$T$50, DW_AT_name("TBPHS_HIRES_REG")
    4917                      .dwattr DW$T$50, DW_AT_byte_size(0x02)
    4918              DW$607  .dwtag  DW_TAG_member, DW_AT_type(*DW$T$19)
    4919                      .dwattr DW$607, DW_AT_name("TBPHSHR"), DW_AT_symbol_name("_TBPHSHR")
    4920                      .dwattr DW$607, DW_AT_data_member_location[DW_OP_plus_uconst 0x0]
    4921                      .dwattr DW$607, DW_AT_accessibility(DW_ACCESS_public)
    4922              DW$608  .dwtag  DW_TAG_member, DW_AT_type(*DW$T$19)
    4923                      .dwattr DW$608, DW_AT_name("TBPHS"), DW_AT_symbol_name("_TBPHS")
    4924                      .dwattr DW$608, DW_AT_data_member_location[DW_OP_plus_uconst 0x1]
    4925                      .dwattr DW$608, DW_AT_accessibility(DW_ACCESS_public)
    4926                      .dwendtag DW$T$50
    4927              
    4928              
    4929              DW$T$53 .dwtag  DW_TAG_structure_type
    4930                      .dwattr DW$T$53, DW_AT_name("CMPCTL_BITS")
    4931                      .dwattr DW$T$53, DW_AT_byte_size(0x01)
    4932              DW$609  .dwtag  DW_TAG_member, DW_AT_type(*DW$T$19)
    4933                      .dwattr DW$609, DW_AT_name("LOADAMODE"), DW_AT_symbol_name("_LOADAMODE")
    4934                      .dwattr DW$609, DW_AT_bit_offset(0x0e), DW_AT_bit_size(0x02)
    4935                      .dwattr DW$609, DW_AT_data_member_location[DW_OP_plus_uconst 0x0]
    4936                      .dwattr DW$609, DW_AT_accessibility(DW_ACCESS_public)
    4937              DW$610  .dwtag  DW_TAG_member, DW_AT_type(*DW$T$19)
    4938                      .dwattr DW$610, DW_AT_name("LOADBMODE"), DW_AT_symbol_name("_LOADBMODE")
    4939                      .dwattr DW$610, DW_AT_bit_offset(0x0c), DW_AT_bit_size(0x02)
    4940                      .dwattr DW$610, DW_AT_data_member_location[DW_OP_plus_uconst 0x0]
    4941                      .dwattr DW$610, DW_AT_accessibility(DW_ACCESS_public)
    4942              DW$611  .dwtag  DW_TAG_member, DW_AT_type(*DW$T$19)
    4943                      .dwattr DW$611, DW_AT_name("SHDWAMODE"), DW_AT_symbol_name("_SHDWAMODE")
    4944                      .dwattr DW$611, DW_AT_bit_offset(0x0b), DW_AT_bit_size(0x01)
    4945                      .dwattr DW$611, DW_AT_data_member_location[DW_OP_plus_uconst 0x0]
    4946                      .dwattr DW$611, DW_AT_accessibility(DW_ACCESS_public)
    4947              DW$612  .dwtag  DW_TAG_member, DW_AT_type(*DW$T$19)
    4948                      .dwattr DW$612, DW_AT_name("rsvd1"), DW_AT_symbol_name("_rsvd1")
    4949                      .dwattr DW$612, DW_AT_bit_offset(0x0a), DW_AT_bit_size(0x01)
    4950                      .dwattr DW$612, DW_AT_data_member_location[DW_OP_plus_uconst 0x0]
    4951                      .dwattr DW$612, DW_AT_accessibility(DW_ACCESS_public)
    4952              DW$613  .dwtag  DW_TAG_member, DW_AT_type(*DW$T$19)
    4953                      .dwattr DW$613, DW_AT_name("SHDWBMODE"), DW_AT_symbol_name("_SHDWBMODE")
    4954                      .dwattr DW$613, DW_AT_bit_offset(0x09), DW_AT_bit_size(0x01)
    4955                      .dwattr DW$613, DW_AT_data_member_location[DW_OP_plus_uconst 0x0]
    4956                      .dwattr DW$613, DW_AT_accessibility(DW_ACCESS_public)
    4957              DW$614  .dwtag  DW_TAG_member, DW_AT_type(*DW$T$19)
    4958                      .dwattr DW$614, DW_AT_name("rsvd2"), DW_AT_symbol_name("_rsvd2")
    4959                      .dwattr DW$614, DW_AT_bit_offset(0x08), DW_AT_bit_size(0x01)
    4960                      .dwattr DW$614, DW_AT_data_member_location[DW_OP_plus_uconst 0x0]
TMS320C2000 COFF Assembler PC v4.1.0 Mon Dec 21 14:54:55 2009

Tools Copyright (c) 1996-2005 Texas Instruments Incorporated
C:\DOCUME~1\ADMINI~1\LOCALS~1\Temp\TI9922                            PAGE   99

    4961                      .dwattr DW$614, DW_AT_accessibility(DW_ACCESS_public)
    4962              DW$615  .dwtag  DW_TAG_member, DW_AT_type(*DW$T$19)
    4963                      .dwattr DW$615, DW_AT_name("SHDWAFULL"), DW_AT_symbol_name("_SHDWAFULL")
    4964                      .dwattr DW$615, DW_AT_bit_offset(0x07), DW_AT_bit_size(0x01)
    4965                      .dwattr DW$615, DW_AT_data_member_location[DW_OP_plus_uconst 0x0]
    4966                      .dwattr DW$615, DW_AT_accessibility(DW_ACCESS_public)
    4967              DW$616  .dwtag  DW_TAG_member, DW_AT_type(*DW$T$19)
    4968                      .dwattr DW$616, DW_AT_name("SHDWBFULL"), DW_AT_symbol_name("_SHDWBFULL")
    4969                      .dwattr DW$616, DW_AT_bit_offset(0x06), DW_AT_bit_size(0x01)
    4970                      .dwattr DW$616, DW_AT_data_member_location[DW_OP_plus_uconst 0x0]
    4971                      .dwattr DW$616, DW_AT_accessibility(DW_ACCESS_public)
    4972              DW$617  .dwtag  DW_TAG_member, DW_AT_type(*DW$T$19)
    4973                      .dwattr DW$617, DW_AT_name("rsvd3"), DW_AT_symbol_name("_rsvd3")
    4974                      .dwattr DW$617, DW_AT_bit_offset(0x00), DW_AT_bit_size(0x06)
    4975                      .dwattr DW$617, DW_AT_data_member_location[DW_OP_plus_uconst 0x0]
    4976                      .dwattr DW$617, DW_AT_accessibility(DW_ACCESS_public)
    4977                      .dwendtag DW$T$53
    4978              
    4979              
    4980              DW$T$55 .dwtag  DW_TAG_structure_type
    4981                      .dwattr DW$T$55, DW_AT_name("CMPA_HIRES_REG")
    4982                      .dwattr DW$T$55, DW_AT_byte_size(0x02)
    4983              DW$618  .dwtag  DW_TAG_member, DW_AT_type(*DW$T$19)
    4984                      .dwattr DW$618, DW_AT_name("CMPAHR"), DW_AT_symbol_name("_CMPAHR")
    4985                      .dwattr DW$618, DW_AT_data_member_location[DW_OP_plus_uconst 0x0]
    4986                      .dwattr DW$618, DW_AT_accessibility(DW_ACCESS_public)
    4987              DW$619  .dwtag  DW_TAG_member, DW_AT_type(*DW$T$19)
    4988                      .dwattr DW$619, DW_AT_name("CMPA"), DW_AT_symbol_name("_CMPA")
    4989                      .dwattr DW$619, DW_AT_data_member_location[DW_OP_plus_uconst 0x1]
    4990                      .dwattr DW$619, DW_AT_accessibility(DW_ACCESS_public)
    4991                      .dwendtag DW$T$55
    4992              
    4993              
    4994              DW$T$57 .dwtag  DW_TAG_structure_type
    4995                      .dwattr DW$T$57, DW_AT_name("AQCTL_BITS")
    4996                      .dwattr DW$T$57, DW_AT_byte_size(0x01)
    4997              DW$620  .dwtag  DW_TAG_member, DW_AT_type(*DW$T$19)
    4998                      .dwattr DW$620, DW_AT_name("ZRO"), DW_AT_symbol_name("_ZRO")
    4999                      .dwattr DW$620, DW_AT_bit_offset(0x0e), DW_AT_bit_size(0x02)
    5000                      .dwattr DW$620, DW_AT_data_member_location[DW_OP_plus_uconst 0x0]
    5001                      .dwattr DW$620, DW_AT_accessibility(DW_ACCESS_public)
    5002              DW$621  .dwtag  DW_TAG_member, DW_AT_type(*DW$T$19)
    5003                      .dwattr DW$621, DW_AT_name("PRD"), DW_AT_symbol_name("_PRD")
    5004                      .dwattr DW$621, DW_AT_bit_offset(0x0c), DW_AT_bit_size(0x02)
    5005                      .dwattr DW$621, DW_AT_data_member_location[DW_OP_plus_uconst 0x0]
    5006                      .dwattr DW$621, DW_AT_accessibility(DW_ACCESS_public)
    5007              DW$622  .dwtag  DW_TAG_member, DW_AT_type(*DW$T$19)
    5008                      .dwattr DW$622, DW_AT_name("CAU"), DW_AT_symbol_name("_CAU")
    5009                      .dwattr DW$622, DW_AT_bit_offset(0x0a), DW_AT_bit_size(0x02)
    5010                      .dwattr DW$622, DW_AT_data_member_location[DW_OP_plus_uconst 0x0]
    5011                      .dwattr DW$622, DW_AT_accessibility(DW_ACCESS_public)
    5012              DW$623  .dwtag  DW_TAG_member, DW_AT_type(*DW$T$19)
    5013                      .dwattr DW$623, DW_AT_name("CAD"), DW_AT_symbol_name("_CAD")
    5014                      .dwattr DW$623, DW_AT_bit_offset(0x08), DW_AT_bit_size(0x02)
    5015                      .dwattr DW$623, DW_AT_data_member_location[DW_OP_plus_uconst 0x0]
TMS320C2000 COFF Assembler PC v4.1.0 Mon Dec 21 14:54:55 2009

Tools Copyright (c) 1996-2005 Texas Instruments Incorporated
C:\DOCUME~1\ADMINI~1\LOCALS~1\Temp\TI9922                            PAGE  100

    5016                      .dwattr DW$623, DW_AT_accessibility(DW_ACCESS_public)
    5017              DW$624  .dwtag  DW_TAG_member, DW_AT_type(*DW$T$19)
    5018                      .dwattr DW$624, DW_AT_name("CBU"), DW_AT_symbol_name("_CBU")
    5019                      .dwattr DW$624, DW_AT_bit_offset(0x06), DW_AT_bit_size(0x02)
    5020                      .dwattr DW$624, DW_AT_data_member_location[DW_OP_plus_uconst 0x0]
    5021                      .dwattr DW$624, DW_AT_accessibility(DW_ACCESS_public)
    5022              DW$625  .dwtag  DW_TAG_member, DW_AT_type(*DW$T$19)
    5023                      .dwattr DW$625, DW_AT_name("CBD"), DW_AT_symbol_name("_CBD")
    5024                      .dwattr DW$625, DW_AT_bit_offset(0x04), DW_AT_bit_size(0x02)
    5025                      .dwattr DW$625, DW_AT_data_member_location[DW_OP_plus_uconst 0x0]
    5026                      .dwattr DW$625, DW_AT_accessibility(DW_ACCESS_public)
    5027              DW$626  .dwtag  DW_TAG_member, DW_AT_type(*DW$T$19)
    5028                      .dwattr DW$626, DW_AT_name("rsvd"), DW_AT_symbol_name("_rsvd")
    5029                      .dwattr DW$626, DW_AT_bit_offset(0x00), DW_AT_bit_size(0x04)
    5030                      .dwattr DW$626, DW_AT_data_member_location[DW_OP_plus_uconst 0x0]
    5031                      .dwattr DW$626, DW_AT_accessibility(DW_ACCESS_public)
    5032                      .dwendtag DW$T$57
    5033              
    5034              
    5035              DW$T$59 .dwtag  DW_TAG_structure_type
    5036                      .dwattr DW$T$59, DW_AT_name("AQSFRC_BITS")
    5037                      .dwattr DW$T$59, DW_AT_byte_size(0x01)
    5038              DW$627  .dwtag  DW_TAG_member, DW_AT_type(*DW$T$19)
    5039                      .dwattr DW$627, DW_AT_name("ACTSFA"), DW_AT_symbol_name("_ACTSFA")
    5040                      .dwattr DW$627, DW_AT_bit_offset(0x0e), DW_AT_bit_size(0x02)
    5041                      .dwattr DW$627, DW_AT_data_member_location[DW_OP_plus_uconst 0x0]
    5042                      .dwattr DW$627, DW_AT_accessibility(DW_ACCESS_public)
    5043              DW$628  .dwtag  DW_TAG_member, DW_AT_type(*DW$T$19)
    5044                      .dwattr DW$628, DW_AT_name("OTSFA"), DW_AT_symbol_name("_OTSFA")
    5045                      .dwattr DW$628, DW_AT_bit_offset(0x0d), DW_AT_bit_size(0x01)
    5046                      .dwattr DW$628, DW_AT_data_member_location[DW_OP_plus_uconst 0x0]
    5047                      .dwattr DW$628, DW_AT_accessibility(DW_ACCESS_public)
    5048              DW$629  .dwtag  DW_TAG_member, DW_AT_type(*DW$T$19)
    5049                      .dwattr DW$629, DW_AT_name("ACTSFB"), DW_AT_symbol_name("_ACTSFB")
    5050                      .dwattr DW$629, DW_AT_bit_offset(0x0b), DW_AT_bit_size(0x02)
    5051                      .dwattr DW$629, DW_AT_data_member_location[DW_OP_plus_uconst 0x0]
    5052                      .dwattr DW$629, DW_AT_accessibility(DW_ACCESS_public)
    5053              DW$630  .dwtag  DW_TAG_member, DW_AT_type(*DW$T$19)
    5054                      .dwattr DW$630, DW_AT_name("OTSFB"), DW_AT_symbol_name("_OTSFB")
    5055                      .dwattr DW$630, DW_AT_bit_offset(0x0a), DW_AT_bit_size(0x01)
    5056                      .dwattr DW$630, DW_AT_data_member_location[DW_OP_plus_uconst 0x0]
    5057                      .dwattr DW$630, DW_AT_accessibility(DW_ACCESS_public)
    5058              DW$631  .dwtag  DW_TAG_member, DW_AT_type(*DW$T$19)
    5059                      .dwattr DW$631, DW_AT_name("RLDCSF"), DW_AT_symbol_name("_RLDCSF")
    5060                      .dwattr DW$631, DW_AT_bit_offset(0x08), DW_AT_bit_size(0x02)
    5061                      .dwattr DW$631, DW_AT_data_member_location[DW_OP_plus_uconst 0x0]
    5062                      .dwattr DW$631, DW_AT_accessibility(DW_ACCESS_public)
    5063              DW$632  .dwtag  DW_TAG_member, DW_AT_type(*DW$T$19)
    5064                      .dwattr DW$632, DW_AT_name("rsvd1"), DW_AT_symbol_name("_rsvd1")
    5065                      .dwattr DW$632, DW_AT_bit_offset(0x00), DW_AT_bit_size(0x08)
    5066                      .dwattr DW$632, DW_AT_data_member_location[DW_OP_plus_uconst 0x0]
    5067                      .dwattr DW$632, DW_AT_accessibility(DW_ACCESS_public)
    5068                      .dwendtag DW$T$59
    5069              
    5070              
TMS320C2000 COFF Assembler PC v4.1.0 Mon Dec 21 14:54:55 2009

Tools Copyright (c) 1996-2005 Texas Instruments Incorporated
C:\DOCUME~1\ADMINI~1\LOCALS~1\Temp\TI9922                            PAGE  101

    5071              DW$T$61 .dwtag  DW_TAG_structure_type
    5072                      .dwattr DW$T$61, DW_AT_name("AQCSFRC_BITS")
    5073                      .dwattr DW$T$61, DW_AT_byte_size(0x01)
    5074              DW$633  .dwtag  DW_TAG_member, DW_AT_type(*DW$T$19)
    5075                      .dwattr DW$633, DW_AT_name("CSFA"), DW_AT_symbol_name("_CSFA")
    5076                      .dwattr DW$633, DW_AT_bit_offset(0x0e), DW_AT_bit_size(0x02)
    5077                      .dwattr DW$633, DW_AT_data_member_location[DW_OP_plus_uconst 0x0]
    5078                      .dwattr DW$633, DW_AT_accessibility(DW_ACCESS_public)
    5079              DW$634  .dwtag  DW_TAG_member, DW_AT_type(*DW$T$19)
    5080                      .dwattr DW$634, DW_AT_name("CSFB"), DW_AT_symbol_name("_CSFB")
    5081                      .dwattr DW$634, DW_AT_bit_offset(0x0c), DW_AT_bit_size(0x02)
    5082                      .dwattr DW$634, DW_AT_data_member_location[DW_OP_plus_uconst 0x0]
    5083                      .dwattr DW$634, DW_AT_accessibility(DW_ACCESS_public)
    5084              DW$635  .dwtag  DW_TAG_member, DW_AT_type(*DW$T$19)
    5085                      .dwattr DW$635, DW_AT_name("rsvd1"), DW_AT_symbol_name("_rsvd1")
    5086                      .dwattr DW$635, DW_AT_bit_offset(0x00), DW_AT_bit_size(0x0c)
    5087                      .dwattr DW$635, DW_AT_data_member_location[DW_OP_plus_uconst 0x0]
    5088                      .dwattr DW$635, DW_AT_accessibility(DW_ACCESS_public)
    5089                      .dwendtag DW$T$61
    5090              
    5091              
    5092              DW$T$63 .dwtag  DW_TAG_structure_type
    5093                      .dwattr DW$T$63, DW_AT_name("DBCTL_BITS")
    5094                      .dwattr DW$T$63, DW_AT_byte_size(0x01)
    5095              DW$636  .dwtag  DW_TAG_member, DW_AT_type(*DW$T$19)
    5096                      .dwattr DW$636, DW_AT_name("OUT_MODE"), DW_AT_symbol_name("_OUT_MODE")
    5097                      .dwattr DW$636, DW_AT_bit_offset(0x0e), DW_AT_bit_size(0x02)
    5098                      .dwattr DW$636, DW_AT_data_member_location[DW_OP_plus_uconst 0x0]
    5099                      .dwattr DW$636, DW_AT_accessibility(DW_ACCESS_public)
    5100              DW$637  .dwtag  DW_TAG_member, DW_AT_type(*DW$T$19)
    5101                      .dwattr DW$637, DW_AT_name("POLSEL"), DW_AT_symbol_name("_POLSEL")
    5102                      .dwattr DW$637, DW_AT_bit_offset(0x0c), DW_AT_bit_size(0x02)
    5103                      .dwattr DW$637, DW_AT_data_member_location[DW_OP_plus_uconst 0x0]
    5104                      .dwattr DW$637, DW_AT_accessibility(DW_ACCESS_public)
    5105              DW$638  .dwtag  DW_TAG_member, DW_AT_type(*DW$T$19)
    5106                      .dwattr DW$638, DW_AT_name("IN_MODE"), DW_AT_symbol_name("_IN_MODE")
    5107                      .dwattr DW$638, DW_AT_bit_offset(0x0a), DW_AT_bit_size(0x02)
    5108                      .dwattr DW$638, DW_AT_data_member_location[DW_OP_plus_uconst 0x0]
    5109                      .dwattr DW$638, DW_AT_accessibility(DW_ACCESS_public)
    5110              DW$639  .dwtag  DW_TAG_member, DW_AT_type(*DW$T$19)
    5111                      .dwattr DW$639, DW_AT_name("rsvd1"), DW_AT_symbol_name("_rsvd1")
    5112                      .dwattr DW$639, DW_AT_bit_offset(0x00), DW_AT_bit_size(0x0a)
    5113                      .dwattr DW$639, DW_AT_data_member_location[DW_OP_plus_uconst 0x0]
    5114                      .dwattr DW$639, DW_AT_accessibility(DW_ACCESS_public)
    5115                      .dwendtag DW$T$63
    5116              
    5117              
    5118              DW$T$65 .dwtag  DW_TAG_structure_type
    5119                      .dwattr DW$T$65, DW_AT_name("TZSEL_BITS")
    5120                      .dwattr DW$T$65, DW_AT_byte_size(0x01)
    5121              DW$640  .dwtag  DW_TAG_member, DW_AT_type(*DW$T$19)
    5122                      .dwattr DW$640, DW_AT_name("CBC1"), DW_AT_symbol_name("_CBC1")
    5123                      .dwattr DW$640, DW_AT_bit_offset(0x0f), DW_AT_bit_size(0x01)
    5124                      .dwattr DW$640, DW_AT_data_member_location[DW_OP_plus_uconst 0x0]
    5125                      .dwattr DW$640, DW_AT_accessibility(DW_ACCESS_public)
TMS320C2000 COFF Assembler PC v4.1.0 Mon Dec 21 14:54:55 2009

Tools Copyright (c) 1996-2005 Texas Instruments Incorporated
C:\DOCUME~1\ADMINI~1\LOCALS~1\Temp\TI9922                            PAGE  102

    5126              DW$641  .dwtag  DW_TAG_member, DW_AT_type(*DW$T$19)
    5127                      .dwattr DW$641, DW_AT_name("CBC2"), DW_AT_symbol_name("_CBC2")
    5128                      .dwattr DW$641, DW_AT_bit_offset(0x0e), DW_AT_bit_size(0x01)
    5129                      .dwattr DW$641, DW_AT_data_member_location[DW_OP_plus_uconst 0x0]
    5130                      .dwattr DW$641, DW_AT_accessibility(DW_ACCESS_public)
    5131              DW$642  .dwtag  DW_TAG_member, DW_AT_type(*DW$T$19)
    5132                      .dwattr DW$642, DW_AT_name("CBC3"), DW_AT_symbol_name("_CBC3")
    5133                      .dwattr DW$642, DW_AT_bit_offset(0x0d), DW_AT_bit_size(0x01)
    5134                      .dwattr DW$642, DW_AT_data_member_location[DW_OP_plus_uconst 0x0]
    5135                      .dwattr DW$642, DW_AT_accessibility(DW_ACCESS_public)
    5136              DW$643  .dwtag  DW_TAG_member, DW_AT_type(*DW$T$19)
    5137                      .dwattr DW$643, DW_AT_name("CBC4"), DW_AT_symbol_name("_CBC4")
    5138                      .dwattr DW$643, DW_AT_bit_offset(0x0c), DW_AT_bit_size(0x01)
    5139                      .dwattr DW$643, DW_AT_data_member_location[DW_OP_plus_uconst 0x0]
    5140                      .dwattr DW$643, DW_AT_accessibility(DW_ACCESS_public)
    5141              DW$644  .dwtag  DW_TAG_member, DW_AT_type(*DW$T$19)
    5142                      .dwattr DW$644, DW_AT_name("CBC5"), DW_AT_symbol_name("_CBC5")
    5143                      .dwattr DW$644, DW_AT_bit_offset(0x0b), DW_AT_bit_size(0x01)
    5144                      .dwattr DW$644, DW_AT_data_member_location[DW_OP_plus_uconst 0x0]
    5145                      .dwattr DW$644, DW_AT_accessibility(DW_ACCESS_public)
    5146              DW$645  .dwtag  DW_TAG_member, DW_AT_type(*DW$T$19)
    5147                      .dwattr DW$645, DW_AT_name("CBC6"), DW_AT_symbol_name("_CBC6")
    5148                      .dwattr DW$645, DW_AT_bit_offset(0x0a), DW_AT_bit_size(0x01)
    5149                      .dwattr DW$645, DW_AT_data_member_location[DW_OP_plus_uconst 0x0]
    5150                      .dwattr DW$645, DW_AT_accessibility(DW_ACCESS_public)
    5151              DW$646  .dwtag  DW_TAG_member, DW_AT_type(*DW$T$19)
    5152                      .dwattr DW$646, DW_AT_name("rsvd1"), DW_AT_symbol_name("_rsvd1")
    5153                      .dwattr DW$646, DW_AT_bit_offset(0x08), DW_AT_bit_size(0x02)
    5154                      .dwattr DW$646, DW_AT_data_member_location[DW_OP_plus_uconst 0x0]
    5155                      .dwattr DW$646, DW_AT_accessibility(DW_ACCESS_public)
    5156              DW$647  .dwtag  DW_TAG_member, DW_AT_type(*DW$T$19)
    5157                      .dwattr DW$647, DW_AT_name("OSHT1"), DW_AT_symbol_name("_OSHT1")
    5158                      .dwattr DW$647, DW_AT_bit_offset(0x07), DW_AT_bit_size(0x01)
    5159                      .dwattr DW$647, DW_AT_data_member_location[DW_OP_plus_uconst 0x0]
    5160                      .dwattr DW$647, DW_AT_accessibility(DW_ACCESS_public)
    5161              DW$648  .dwtag  DW_TAG_member, DW_AT_type(*DW$T$19)
    5162                      .dwattr DW$648, DW_AT_name("OSHT2"), DW_AT_symbol_name("_OSHT2")
    5163                      .dwattr DW$648, DW_AT_bit_offset(0x06), DW_AT_bit_size(0x01)
    5164                      .dwattr DW$648, DW_AT_data_member_location[DW_OP_plus_uconst 0x0]
    5165                      .dwattr DW$648, DW_AT_accessibility(DW_ACCESS_public)
    5166              DW$649  .dwtag  DW_TAG_member, DW_AT_type(*DW$T$19)
    5167                      .dwattr DW$649, DW_AT_name("OSHT3"), DW_AT_symbol_name("_OSHT3")
    5168                      .dwattr DW$649, DW_AT_bit_offset(0x05), DW_AT_bit_size(0x01)
    5169                      .dwattr DW$649, DW_AT_data_member_location[DW_OP_plus_uconst 0x0]
    5170                      .dwattr DW$649, DW_AT_accessibility(DW_ACCESS_public)
    5171              DW$650  .dwtag  DW_TAG_member, DW_AT_type(*DW$T$19)
    5172                      .dwattr DW$650, DW_AT_name("OSHT4"), DW_AT_symbol_name("_OSHT4")
    5173                      .dwattr DW$650, DW_AT_bit_offset(0x04), DW_AT_bit_size(0x01)
    5174                      .dwattr DW$650, DW_AT_data_member_location[DW_OP_plus_uconst 0x0]
    5175                      .dwattr DW$650, DW_AT_accessibility(DW_ACCESS_public)
    5176              DW$651  .dwtag  DW_TAG_member, DW_AT_type(*DW$T$19)
    5177                      .dwattr DW$651, DW_AT_name("OSHT5"), DW_AT_symbol_name("_OSHT5")
    5178                      .dwattr DW$651, DW_AT_bit_offset(0x03), DW_AT_bit_size(0x01)
    5179                      .dwattr DW$651, DW_AT_data_member_location[DW_OP_plus_uconst 0x0]
    5180                      .dwattr DW$651, DW_AT_accessibility(DW_ACCESS_public)
TMS320C2000 COFF Assembler PC v4.1.0 Mon Dec 21 14:54:55 2009

Tools Copyright (c) 1996-2005 Texas Instruments Incorporated
C:\DOCUME~1\ADMINI~1\LOCALS~1\Temp\TI9922                            PAGE  103

    5181              DW$652  .dwtag  DW_TAG_member, DW_AT_type(*DW$T$19)
    5182                      .dwattr DW$652, DW_AT_name("OSHT6"), DW_AT_symbol_name("_OSHT6")
    5183                      .dwattr DW$652, DW_AT_bit_offset(0x02), DW_AT_bit_size(0x01)
    5184                      .dwattr DW$652, DW_AT_data_member_location[DW_OP_plus_uconst 0x0]
    5185                      .dwattr DW$652, DW_AT_accessibility(DW_ACCESS_public)
    5186              DW$653  .dwtag  DW_TAG_member, DW_AT_type(*DW$T$19)
    5187                      .dwattr DW$653, DW_AT_name("rsvd2"), DW_AT_symbol_name("_rsvd2")
    5188                      .dwattr DW$653, DW_AT_bit_offset(0x00), DW_AT_bit_size(0x02)
    5189                      .dwattr DW$653, DW_AT_data_member_location[DW_OP_plus_uconst 0x0]
    5190                      .dwattr DW$653, DW_AT_accessibility(DW_ACCESS_public)
    5191                      .dwendtag DW$T$65
    5192              
    5193              
    5194              DW$T$67 .dwtag  DW_TAG_structure_type
    5195                      .dwattr DW$T$67, DW_AT_name("TZCTL_BITS")
    5196                      .dwattr DW$T$67, DW_AT_byte_size(0x01)
    5197              DW$654  .dwtag  DW_TAG_member, DW_AT_type(*DW$T$19)
    5198                      .dwattr DW$654, DW_AT_name("TZA"), DW_AT_symbol_name("_TZA")
    5199                      .dwattr DW$654, DW_AT_bit_offset(0x0e), DW_AT_bit_size(0x02)
    5200                      .dwattr DW$654, DW_AT_data_member_location[DW_OP_plus_uconst 0x0]
    5201                      .dwattr DW$654, DW_AT_accessibility(DW_ACCESS_public)
    5202              DW$655  .dwtag  DW_TAG_member, DW_AT_type(*DW$T$19)
    5203                      .dwattr DW$655, DW_AT_name("TZB"), DW_AT_symbol_name("_TZB")
    5204                      .dwattr DW$655, DW_AT_bit_offset(0x0c), DW_AT_bit_size(0x02)
    5205                      .dwattr DW$655, DW_AT_data_member_location[DW_OP_plus_uconst 0x0]
    5206                      .dwattr DW$655, DW_AT_accessibility(DW_ACCESS_public)
    5207              DW$656  .dwtag  DW_TAG_member, DW_AT_type(*DW$T$19)
    5208                      .dwattr DW$656, DW_AT_name("rsvd"), DW_AT_symbol_name("_rsvd")
    5209                      .dwattr DW$656, DW_AT_bit_offset(0x00), DW_AT_bit_size(0x0c)
    5210                      .dwattr DW$656, DW_AT_data_member_location[DW_OP_plus_uconst 0x0]
    5211                      .dwattr DW$656, DW_AT_accessibility(DW_ACCESS_public)
    5212                      .dwendtag DW$T$67
    5213              
    5214              
    5215              DW$T$69 .dwtag  DW_TAG_structure_type
    5216                      .dwattr DW$T$69, DW_AT_name("TZEINT_BITS")
    5217                      .dwattr DW$T$69, DW_AT_byte_size(0x01)
    5218              DW$657  .dwtag  DW_TAG_member, DW_AT_type(*DW$T$19)
    5219                      .dwattr DW$657, DW_AT_name("rsvd1"), DW_AT_symbol_name("_rsvd1")
    5220                      .dwattr DW$657, DW_AT_bit_offset(0x0f), DW_AT_bit_size(0x01)
    5221                      .dwattr DW$657, DW_AT_data_member_location[DW_OP_plus_uconst 0x0]
    5222                      .dwattr DW$657, DW_AT_accessibility(DW_ACCESS_public)
    5223              DW$658  .dwtag  DW_TAG_member, DW_AT_type(*DW$T$19)
    5224                      .dwattr DW$658, DW_AT_name("CBC"), DW_AT_symbol_name("_CBC")
    5225                      .dwattr DW$658, DW_AT_bit_offset(0x0e), DW_AT_bit_size(0x01)
    5226                      .dwattr DW$658, DW_AT_data_member_location[DW_OP_plus_uconst 0x0]
    5227                      .dwattr DW$658, DW_AT_accessibility(DW_ACCESS_public)
    5228              DW$659  .dwtag  DW_TAG_member, DW_AT_type(*DW$T$19)
    5229                      .dwattr DW$659, DW_AT_name("OST"), DW_AT_symbol_name("_OST")
    5230                      .dwattr DW$659, DW_AT_bit_offset(0x0d), DW_AT_bit_size(0x01)
    5231                      .dwattr DW$659, DW_AT_data_member_location[DW_OP_plus_uconst 0x0]
    5232                      .dwattr DW$659, DW_AT_accessibility(DW_ACCESS_public)
    5233              DW$660  .dwtag  DW_TAG_member, DW_AT_type(*DW$T$19)
    5234                      .dwattr DW$660, DW_AT_name("rsvd2"), DW_AT_symbol_name("_rsvd2")
    5235                      .dwattr DW$660, DW_AT_bit_offset(0x00), DW_AT_bit_size(0x0d)
TMS320C2000 COFF Assembler PC v4.1.0 Mon Dec 21 14:54:55 2009

Tools Copyright (c) 1996-2005 Texas Instruments Incorporated
C:\DOCUME~1\ADMINI~1\LOCALS~1\Temp\TI9922                            PAGE  104

    5236                      .dwattr DW$660, DW_AT_data_member_location[DW_OP_plus_uconst 0x0]
    5237                      .dwattr DW$660, DW_AT_accessibility(DW_ACCESS_public)
    5238                      .dwendtag DW$T$69
    5239              
    5240              
    5241              DW$T$71 .dwtag  DW_TAG_structure_type
    5242                      .dwattr DW$T$71, DW_AT_name("TZFLG_BITS")
    5243                      .dwattr DW$T$71, DW_AT_byte_size(0x01)
    5244              DW$661  .dwtag  DW_TAG_member, DW_AT_type(*DW$T$19)
    5245                      .dwattr DW$661, DW_AT_name("INT"), DW_AT_symbol_name("_INT")
    5246                      .dwattr DW$661, DW_AT_bit_offset(0x0f), DW_AT_bit_size(0x01)
    5247                      .dwattr DW$661, DW_AT_data_member_location[DW_OP_plus_uconst 0x0]
    5248                      .dwattr DW$661, DW_AT_accessibility(DW_ACCESS_public)
    5249              DW$662  .dwtag  DW_TAG_member, DW_AT_type(*DW$T$19)
    5250                      .dwattr DW$662, DW_AT_name("CBC"), DW_AT_symbol_name("_CBC")
    5251                      .dwattr DW$662, DW_AT_bit_offset(0x0e), DW_AT_bit_size(0x01)
    5252                      .dwattr DW$662, DW_AT_data_member_location[DW_OP_plus_uconst 0x0]
    5253                      .dwattr DW$662, DW_AT_accessibility(DW_ACCESS_public)
    5254              DW$663  .dwtag  DW_TAG_member, DW_AT_type(*DW$T$19)
    5255                      .dwattr DW$663, DW_AT_name("OST"), DW_AT_symbol_name("_OST")
    5256                      .dwattr DW$663, DW_AT_bit_offset(0x0d), DW_AT_bit_size(0x01)
    5257                      .dwattr DW$663, DW_AT_data_member_location[DW_OP_plus_uconst 0x0]
    5258                      .dwattr DW$663, DW_AT_accessibility(DW_ACCESS_public)
    5259              DW$664  .dwtag  DW_TAG_member, DW_AT_type(*DW$T$19)
    5260                      .dwattr DW$664, DW_AT_name("rsvd2"), DW_AT_symbol_name("_rsvd2")
    5261                      .dwattr DW$664, DW_AT_bit_offset(0x00), DW_AT_bit_size(0x0d)
    5262                      .dwattr DW$664, DW_AT_data_member_location[DW_OP_plus_uconst 0x0]
    5263                      .dwattr DW$664, DW_AT_accessibility(DW_ACCESS_public)
    5264                      .dwendtag DW$T$71
    5265              
    5266              
    5267              DW$T$73 .dwtag  DW_TAG_structure_type
    5268                      .dwattr DW$T$73, DW_AT_name("TZCLR_BITS")
    5269                      .dwattr DW$T$73, DW_AT_byte_size(0x01)
    5270              DW$665  .dwtag  DW_TAG_member, DW_AT_type(*DW$T$19)
    5271                      .dwattr DW$665, DW_AT_name("INT"), DW_AT_symbol_name("_INT")
    5272                      .dwattr DW$665, DW_AT_bit_offset(0x0f), DW_AT_bit_size(0x01)
    5273                      .dwattr DW$665, DW_AT_data_member_location[DW_OP_plus_uconst 0x0]
    5274                      .dwattr DW$665, DW_AT_accessibility(DW_ACCESS_public)
    5275              DW$666  .dwtag  DW_TAG_member, DW_AT_type(*DW$T$19)
    5276                      .dwattr DW$666, DW_AT_name("CBC"), DW_AT_symbol_name("_CBC")
    5277                      .dwattr DW$666, DW_AT_bit_offset(0x0e), DW_AT_bit_size(0x01)
    5278                      .dwattr DW$666, DW_AT_data_member_location[DW_OP_plus_uconst 0x0]
    5279                      .dwattr DW$666, DW_AT_accessibility(DW_ACCESS_public)
    5280              DW$667  .dwtag  DW_TAG_member, DW_AT_type(*DW$T$19)
    5281                      .dwattr DW$667, DW_AT_name("OST"), DW_AT_symbol_name("_OST")
    5282                      .dwattr DW$667, DW_AT_bit_offset(0x0d), DW_AT_bit_size(0x01)
    5283                      .dwattr DW$667, DW_AT_data_member_location[DW_OP_plus_uconst 0x0]
    5284                      .dwattr DW$667, DW_AT_accessibility(DW_ACCESS_public)
    5285              DW$668  .dwtag  DW_TAG_member, DW_AT_type(*DW$T$19)
    5286                      .dwattr DW$668, DW_AT_name("rsvd2"), DW_AT_symbol_name("_rsvd2")
    5287                      .dwattr DW$668, DW_AT_bit_offset(0x00), DW_AT_bit_size(0x0d)
    5288                      .dwattr DW$668, DW_AT_data_member_location[DW_OP_plus_uconst 0x0]
    5289                      .dwattr DW$668, DW_AT_accessibility(DW_ACCESS_public)
    5290                      .dwendtag DW$T$73
TMS320C2000 COFF Assembler PC v4.1.0 Mon Dec 21 14:54:55 2009

Tools Copyright (c) 1996-2005 Texas Instruments Incorporated
C:\DOCUME~1\ADMINI~1\LOCALS~1\Temp\TI9922                            PAGE  105

    5291              
    5292              
    5293              DW$T$75 .dwtag  DW_TAG_structure_type
    5294                      .dwattr DW$T$75, DW_AT_name("TZFRC_BITS")
    5295                      .dwattr DW$T$75, DW_AT_byte_size(0x01)
    5296              DW$669  .dwtag  DW_TAG_member, DW_AT_type(*DW$T$19)
    5297                      .dwattr DW$669, DW_AT_name("rsvd1"), DW_AT_symbol_name("_rsvd1")
    5298                      .dwattr DW$669, DW_AT_bit_offset(0x0f), DW_AT_bit_size(0x01)
    5299                      .dwattr DW$669, DW_AT_data_member_location[DW_OP_plus_uconst 0x0]
    5300                      .dwattr DW$669, DW_AT_accessibility(DW_ACCESS_public)
    5301              DW$670  .dwtag  DW_TAG_member, DW_AT_type(*DW$T$19)
    5302                      .dwattr DW$670, DW_AT_name("CBC"), DW_AT_symbol_name("_CBC")
    5303                      .dwattr DW$670, DW_AT_bit_offset(0x0e), DW_AT_bit_size(0x01)
    5304                      .dwattr DW$670, DW_AT_data_member_location[DW_OP_plus_uconst 0x0]
    5305                      .dwattr DW$670, DW_AT_accessibility(DW_ACCESS_public)
    5306              DW$671  .dwtag  DW_TAG_member, DW_AT_type(*DW$T$19)
    5307                      .dwattr DW$671, DW_AT_name("OST"), DW_AT_symbol_name("_OST")
    5308                      .dwattr DW$671, DW_AT_bit_offset(0x0d), DW_AT_bit_size(0x01)
    5309                      .dwattr DW$671, DW_AT_data_member_location[DW_OP_plus_uconst 0x0]
    5310                      .dwattr DW$671, DW_AT_accessibility(DW_ACCESS_public)
    5311              DW$672  .dwtag  DW_TAG_member, DW_AT_type(*DW$T$19)
    5312                      .dwattr DW$672, DW_AT_name("rsvd2"), DW_AT_symbol_name("_rsvd2")
    5313                      .dwattr DW$672, DW_AT_bit_offset(0x00), DW_AT_bit_size(0x0d)
    5314                      .dwattr DW$672, DW_AT_data_member_location[DW_OP_plus_uconst 0x0]
    5315                      .dwattr DW$672, DW_AT_accessibility(DW_ACCESS_public)
    5316                      .dwendtag DW$T$75
    5317              
    5318              
    5319              DW$T$77 .dwtag  DW_TAG_structure_type
    5320                      .dwattr DW$T$77, DW_AT_name("ETSEL_BITS")
    5321                      .dwattr DW$T$77, DW_AT_byte_size(0x01)
    5322              DW$673  .dwtag  DW_TAG_member, DW_AT_type(*DW$T$19)
    5323                      .dwattr DW$673, DW_AT_name("INTSEL"), DW_AT_symbol_name("_INTSEL")
    5324                      .dwattr DW$673, DW_AT_bit_offset(0x0d), DW_AT_bit_size(0x03)
    5325                      .dwattr DW$673, DW_AT_data_member_location[DW_OP_plus_uconst 0x0]
    5326                      .dwattr DW$673, DW_AT_accessibility(DW_ACCESS_public)
    5327              DW$674  .dwtag  DW_TAG_member, DW_AT_type(*DW$T$19)
    5328                      .dwattr DW$674, DW_AT_name("INTEN"), DW_AT_symbol_name("_INTEN")
    5329                      .dwattr DW$674, DW_AT_bit_offset(0x0c), DW_AT_bit_size(0x01)
    5330                      .dwattr DW$674, DW_AT_data_member_location[DW_OP_plus_uconst 0x0]
    5331                      .dwattr DW$674, DW_AT_accessibility(DW_ACCESS_public)
    5332              DW$675  .dwtag  DW_TAG_member, DW_AT_type(*DW$T$19)
    5333                      .dwattr DW$675, DW_AT_name("rsvd1"), DW_AT_symbol_name("_rsvd1")
    5334                      .dwattr DW$675, DW_AT_bit_offset(0x08), DW_AT_bit_size(0x04)
    5335                      .dwattr DW$675, DW_AT_data_member_location[DW_OP_plus_uconst 0x0]
    5336                      .dwattr DW$675, DW_AT_accessibility(DW_ACCESS_public)
    5337              DW$676  .dwtag  DW_TAG_member, DW_AT_type(*DW$T$19)
    5338                      .dwattr DW$676, DW_AT_name("SOCASEL"), DW_AT_symbol_name("_SOCASEL")
    5339                      .dwattr DW$676, DW_AT_bit_offset(0x05), DW_AT_bit_size(0x03)
    5340                      .dwattr DW$676, DW_AT_data_member_location[DW_OP_plus_uconst 0x0]
    5341                      .dwattr DW$676, DW_AT_accessibility(DW_ACCESS_public)
    5342              DW$677  .dwtag  DW_TAG_member, DW_AT_type(*DW$T$19)
    5343                      .dwattr DW$677, DW_AT_name("SOCAEN"), DW_AT_symbol_name("_SOCAEN")
    5344                      .dwattr DW$677, DW_AT_bit_offset(0x04), DW_AT_bit_size(0x01)
    5345                      .dwattr DW$677, DW_AT_data_member_location[DW_OP_plus_uconst 0x0]
TMS320C2000 COFF Assembler PC v4.1.0 Mon Dec 21 14:54:55 2009

Tools Copyright (c) 1996-2005 Texas Instruments Incorporated
C:\DOCUME~1\ADMINI~1\LOCALS~1\Temp\TI9922                            PAGE  106

    5346                      .dwattr DW$677, DW_AT_accessibility(DW_ACCESS_public)
    5347              DW$678  .dwtag  DW_TAG_member, DW_AT_type(*DW$T$19)
    5348                      .dwattr DW$678, DW_AT_name("SOCBSEL"), DW_AT_symbol_name("_SOCBSEL")
    5349                      .dwattr DW$678, DW_AT_bit_offset(0x01), DW_AT_bit_size(0x03)
    5350                      .dwattr DW$678, DW_AT_data_member_location[DW_OP_plus_uconst 0x0]
    5351                      .dwattr DW$678, DW_AT_accessibility(DW_ACCESS_public)
    5352              DW$679  .dwtag  DW_TAG_member, DW_AT_type(*DW$T$19)
    5353                      .dwattr DW$679, DW_AT_name("SOCBEN"), DW_AT_symbol_name("_SOCBEN")
    5354                      .dwattr DW$679, DW_AT_bit_offset(0x00), DW_AT_bit_size(0x01)
    5355                      .dwattr DW$679, DW_AT_data_member_location[DW_OP_plus_uconst 0x0]
    5356                      .dwattr DW$679, DW_AT_accessibility(DW_ACCESS_public)
    5357                      .dwendtag DW$T$77
    5358              
    5359              
    5360              DW$T$79 .dwtag  DW_TAG_structure_type
    5361                      .dwattr DW$T$79, DW_AT_name("ETPS_BITS")
    5362                      .dwattr DW$T$79, DW_AT_byte_size(0x01)
    5363              DW$680  .dwtag  DW_TAG_member, DW_AT_type(*DW$T$19)
    5364                      .dwattr DW$680, DW_AT_name("INTPRD"), DW_AT_symbol_name("_INTPRD")
    5365                      .dwattr DW$680, DW_AT_bit_offset(0x0e), DW_AT_bit_size(0x02)
    5366                      .dwattr DW$680, DW_AT_data_member_location[DW_OP_plus_uconst 0x0]
    5367                      .dwattr DW$680, DW_AT_accessibility(DW_ACCESS_public)
    5368              DW$681  .dwtag  DW_TAG_member, DW_AT_type(*DW$T$19)
    5369                      .dwattr DW$681, DW_AT_name("INTCNT"), DW_AT_symbol_name("_INTCNT")
    5370                      .dwattr DW$681, DW_AT_bit_offset(0x0c), DW_AT_bit_size(0x02)
    5371                      .dwattr DW$681, DW_AT_data_member_location[DW_OP_plus_uconst 0x0]
    5372                      .dwattr DW$681, DW_AT_accessibility(DW_ACCESS_public)
    5373              DW$682  .dwtag  DW_TAG_member, DW_AT_type(*DW$T$19)
    5374                      .dwattr DW$682, DW_AT_name("rsvd1"), DW_AT_symbol_name("_rsvd1")
    5375                      .dwattr DW$682, DW_AT_bit_offset(0x08), DW_AT_bit_size(0x04)
    5376                      .dwattr DW$682, DW_AT_data_member_location[DW_OP_plus_uconst 0x0]
    5377                      .dwattr DW$682, DW_AT_accessibility(DW_ACCESS_public)
    5378              DW$683  .dwtag  DW_TAG_member, DW_AT_type(*DW$T$19)
    5379                      .dwattr DW$683, DW_AT_name("SOCAPRD"), DW_AT_symbol_name("_SOCAPRD")
    5380                      .dwattr DW$683, DW_AT_bit_offset(0x06), DW_AT_bit_size(0x02)
    5381                      .dwattr DW$683, DW_AT_data_member_location[DW_OP_plus_uconst 0x0]
    5382                      .dwattr DW$683, DW_AT_accessibility(DW_ACCESS_public)
    5383              DW$684  .dwtag  DW_TAG_member, DW_AT_type(*DW$T$19)
    5384                      .dwattr DW$684, DW_AT_name("SOCACNT"), DW_AT_symbol_name("_SOCACNT")
    5385                      .dwattr DW$684, DW_AT_bit_offset(0x04), DW_AT_bit_size(0x02)
    5386                      .dwattr DW$684, DW_AT_data_member_location[DW_OP_plus_uconst 0x0]
    5387                      .dwattr DW$684, DW_AT_accessibility(DW_ACCESS_public)
    5388              DW$685  .dwtag  DW_TAG_member, DW_AT_type(*DW$T$19)
    5389                      .dwattr DW$685, DW_AT_name("SOCBPRD"), DW_AT_symbol_name("_SOCBPRD")
    5390                      .dwattr DW$685, DW_AT_bit_offset(0x02), DW_AT_bit_size(0x02)
    5391                      .dwattr DW$685, DW_AT_data_member_location[DW_OP_plus_uconst 0x0]
    5392                      .dwattr DW$685, DW_AT_accessibility(DW_ACCESS_public)
    5393              DW$686  .dwtag  DW_TAG_member, DW_AT_type(*DW$T$19)
    5394                      .dwattr DW$686, DW_AT_name("SOCBCNT"), DW_AT_symbol_name("_SOCBCNT")
    5395                      .dwattr DW$686, DW_AT_bit_offset(0x00), DW_AT_bit_size(0x02)
    5396                      .dwattr DW$686, DW_AT_data_member_location[DW_OP_plus_uconst 0x0]
    5397                      .dwattr DW$686, DW_AT_accessibility(DW_ACCESS_public)
    5398                      .dwendtag DW$T$79
    5399              
    5400              
TMS320C2000 COFF Assembler PC v4.1.0 Mon Dec 21 14:54:55 2009

Tools Copyright (c) 1996-2005 Texas Instruments Incorporated
C:\DOCUME~1\ADMINI~1\LOCALS~1\Temp\TI9922                            PAGE  107

    5401              DW$T$81 .dwtag  DW_TAG_structure_type
    5402                      .dwattr DW$T$81, DW_AT_name("ETFLG_BITS")
    5403                      .dwattr DW$T$81, DW_AT_byte_size(0x01)
    5404              DW$687  .dwtag  DW_TAG_member, DW_AT_type(*DW$T$19)
    5405                      .dwattr DW$687, DW_AT_name("INT"), DW_AT_symbol_name("_INT")
    5406                      .dwattr DW$687, DW_AT_bit_offset(0x0f), DW_AT_bit_size(0x01)
    5407                      .dwattr DW$687, DW_AT_data_member_location[DW_OP_plus_uconst 0x0]
    5408                      .dwattr DW$687, DW_AT_accessibility(DW_ACCESS_public)
    5409              DW$688  .dwtag  DW_TAG_member, DW_AT_type(*DW$T$19)
    5410                      .dwattr DW$688, DW_AT_name("rsvd1"), DW_AT_symbol_name("_rsvd1")
    5411                      .dwattr DW$688, DW_AT_bit_offset(0x0e), DW_AT_bit_size(0x01)
    5412                      .dwattr DW$688, DW_AT_data_member_location[DW_OP_plus_uconst 0x0]
    5413                      .dwattr DW$688, DW_AT_accessibility(DW_ACCESS_public)
    5414              DW$689  .dwtag  DW_TAG_member, DW_AT_type(*DW$T$19)
    5415                      .dwattr DW$689, DW_AT_name("SOCA"), DW_AT_symbol_name("_SOCA")
    5416                      .dwattr DW$689, DW_AT_bit_offset(0x0d), DW_AT_bit_size(0x01)
    5417                      .dwattr DW$689, DW_AT_data_member_location[DW_OP_plus_uconst 0x0]
    5418                      .dwattr DW$689, DW_AT_accessibility(DW_ACCESS_public)
    5419              DW$690  .dwtag  DW_TAG_member, DW_AT_type(*DW$T$19)
    5420                      .dwattr DW$690, DW_AT_name("SOCB"), DW_AT_symbol_name("_SOCB")
    5421                      .dwattr DW$690, DW_AT_bit_offset(0x0c), DW_AT_bit_size(0x01)
    5422                      .dwattr DW$690, DW_AT_data_member_location[DW_OP_plus_uconst 0x0]
    5423                      .dwattr DW$690, DW_AT_accessibility(DW_ACCESS_public)
    5424              DW$691  .dwtag  DW_TAG_member, DW_AT_type(*DW$T$19)
    5425                      .dwattr DW$691, DW_AT_name("rsvd2"), DW_AT_symbol_name("_rsvd2")
    5426                      .dwattr DW$691, DW_AT_bit_offset(0x00), DW_AT_bit_size(0x0c)
    5427                      .dwattr DW$691, DW_AT_data_member_location[DW_OP_plus_uconst 0x0]
    5428                      .dwattr DW$691, DW_AT_accessibility(DW_ACCESS_public)
    5429                      .dwendtag DW$T$81
    5430              
    5431              
    5432              DW$T$83 .dwtag  DW_TAG_structure_type
    5433                      .dwattr DW$T$83, DW_AT_name("ETCLR_BITS")
    5434                      .dwattr DW$T$83, DW_AT_byte_size(0x01)
    5435              DW$692  .dwtag  DW_TAG_member, DW_AT_type(*DW$T$19)
    5436                      .dwattr DW$692, DW_AT_name("INT"), DW_AT_symbol_name("_INT")
    5437                      .dwattr DW$692, DW_AT_bit_offset(0x0f), DW_AT_bit_size(0x01)
    5438                      .dwattr DW$692, DW_AT_data_member_location[DW_OP_plus_uconst 0x0]
    5439                      .dwattr DW$692, DW_AT_accessibility(DW_ACCESS_public)
    5440              DW$693  .dwtag  DW_TAG_member, DW_AT_type(*DW$T$19)
    5441                      .dwattr DW$693, DW_AT_name("rsvd1"), DW_AT_symbol_name("_rsvd1")
    5442                      .dwattr DW$693, DW_AT_bit_offset(0x0e), DW_AT_bit_size(0x01)
    5443                      .dwattr DW$693, DW_AT_data_member_location[DW_OP_plus_uconst 0x0]
    5444                      .dwattr DW$693, DW_AT_accessibility(DW_ACCESS_public)
    5445              DW$694  .dwtag  DW_TAG_member, DW_AT_type(*DW$T$19)
    5446                      .dwattr DW$694, DW_AT_name("SOCA"), DW_AT_symbol_name("_SOCA")
    5447                      .dwattr DW$694, DW_AT_bit_offset(0x0d), DW_AT_bit_size(0x01)
    5448                      .dwattr DW$694, DW_AT_data_member_location[DW_OP_plus_uconst 0x0]
    5449                      .dwattr DW$694, DW_AT_accessibility(DW_ACCESS_public)
    5450              DW$695  .dwtag  DW_TAG_member, DW_AT_type(*DW$T$19)
    5451                      .dwattr DW$695, DW_AT_name("SOCB"), DW_AT_symbol_name("_SOCB")
    5452                      .dwattr DW$695, DW_AT_bit_offset(0x0c), DW_AT_bit_size(0x01)
    5453                      .dwattr DW$695, DW_AT_data_member_location[DW_OP_plus_uconst 0x0]
    5454                      .dwattr DW$695, DW_AT_accessibility(DW_ACCESS_public)
    5455              DW$696  .dwtag  DW_TAG_member, DW_AT_type(*DW$T$19)
TMS320C2000 COFF Assembler PC v4.1.0 Mon Dec 21 14:54:55 2009

Tools Copyright (c) 1996-2005 Texas Instruments Incorporated
C:\DOCUME~1\ADMINI~1\LOCALS~1\Temp\TI9922                            PAGE  108

    5456                      .dwattr DW$696, DW_AT_name("rsvd2"), DW_AT_symbol_name("_rsvd2")
    5457                      .dwattr DW$696, DW_AT_bit_offset(0x00), DW_AT_bit_size(0x0c)
    5458                      .dwattr DW$696, DW_AT_data_member_location[DW_OP_plus_uconst 0x0]
    5459                      .dwattr DW$696, DW_AT_accessibility(DW_ACCESS_public)
    5460                      .dwendtag DW$T$83
    5461              
    5462              
    5463              DW$T$85 .dwtag  DW_TAG_structure_type
    5464                      .dwattr DW$T$85, DW_AT_name("ETFRC_BITS")
    5465                      .dwattr DW$T$85, DW_AT_byte_size(0x01)
    5466              DW$697  .dwtag  DW_TAG_member, DW_AT_type(*DW$T$19)
    5467                      .dwattr DW$697, DW_AT_name("INT"), DW_AT_symbol_name("_INT")
    5468                      .dwattr DW$697, DW_AT_bit_offset(0x0f), DW_AT_bit_size(0x01)
    5469                      .dwattr DW$697, DW_AT_data_member_location[DW_OP_plus_uconst 0x0]
    5470                      .dwattr DW$697, DW_AT_accessibility(DW_ACCESS_public)
    5471              DW$698  .dwtag  DW_TAG_member, DW_AT_type(*DW$T$19)
    5472                      .dwattr DW$698, DW_AT_name("rsvd1"), DW_AT_symbol_name("_rsvd1")
    5473                      .dwattr DW$698, DW_AT_bit_offset(0x0e), DW_AT_bit_size(0x01)
    5474                      .dwattr DW$698, DW_AT_data_member_location[DW_OP_plus_uconst 0x0]
    5475                      .dwattr DW$698, DW_AT_accessibility(DW_ACCESS_public)
    5476              DW$699  .dwtag  DW_TAG_member, DW_AT_type(*DW$T$19)
    5477                      .dwattr DW$699, DW_AT_name("SOCA"), DW_AT_symbol_name("_SOCA")
    5478                      .dwattr DW$699, DW_AT_bit_offset(0x0d), DW_AT_bit_size(0x01)
    5479                      .dwattr DW$699, DW_AT_data_member_location[DW_OP_plus_uconst 0x0]
    5480                      .dwattr DW$699, DW_AT_accessibility(DW_ACCESS_public)
    5481              DW$700  .dwtag  DW_TAG_member, DW_AT_type(*DW$T$19)
    5482                      .dwattr DW$700, DW_AT_name("SOCB"), DW_AT_symbol_name("_SOCB")
    5483                      .dwattr DW$700, DW_AT_bit_offset(0x0c), DW_AT_bit_size(0x01)
    5484                      .dwattr DW$700, DW_AT_data_member_location[DW_OP_plus_uconst 0x0]
    5485                      .dwattr DW$700, DW_AT_accessibility(DW_ACCESS_public)
    5486              DW$701  .dwtag  DW_TAG_member, DW_AT_type(*DW$T$19)
    5487                      .dwattr DW$701, DW_AT_name("rsvd2"), DW_AT_symbol_name("_rsvd2")
    5488                      .dwattr DW$701, DW_AT_bit_offset(0x00), DW_AT_bit_size(0x0c)
    5489                      .dwattr DW$701, DW_AT_data_member_location[DW_OP_plus_uconst 0x0]
    5490                      .dwattr DW$701, DW_AT_accessibility(DW_ACCESS_public)
    5491                      .dwendtag DW$T$85
    5492              
    5493              
    5494              DW$T$87 .dwtag  DW_TAG_structure_type
    5495                      .dwattr DW$T$87, DW_AT_name("PCCTL_BITS")
    5496                      .dwattr DW$T$87, DW_AT_byte_size(0x01)
    5497              DW$702  .dwtag  DW_TAG_member, DW_AT_type(*DW$T$19)
    5498                      .dwattr DW$702, DW_AT_name("CHPEN"), DW_AT_symbol_name("_CHPEN")
    5499                      .dwattr DW$702, DW_AT_bit_offset(0x0f), DW_AT_bit_size(0x01)
    5500                      .dwattr DW$702, DW_AT_data_member_location[DW_OP_plus_uconst 0x0]
    5501                      .dwattr DW$702, DW_AT_accessibility(DW_ACCESS_public)
    5502              DW$703  .dwtag  DW_TAG_member, DW_AT_type(*DW$T$19)
    5503                      .dwattr DW$703, DW_AT_name("OSHTWTH"), DW_AT_symbol_name("_OSHTWTH")
    5504                      .dwattr DW$703, DW_AT_bit_offset(0x0b), DW_AT_bit_size(0x04)
    5505                      .dwattr DW$703, DW_AT_data_member_location[DW_OP_plus_uconst 0x0]
    5506                      .dwattr DW$703, DW_AT_accessibility(DW_ACCESS_public)
    5507              DW$704  .dwtag  DW_TAG_member, DW_AT_type(*DW$T$19)
    5508                      .dwattr DW$704, DW_AT_name("CHPFREQ"), DW_AT_symbol_name("_CHPFREQ")
    5509                      .dwattr DW$704, DW_AT_bit_offset(0x08), DW_AT_bit_size(0x03)
    5510                      .dwattr DW$704, DW_AT_data_member_location[DW_OP_plus_uconst 0x0]
TMS320C2000 COFF Assembler PC v4.1.0 Mon Dec 21 14:54:55 2009

Tools Copyright (c) 1996-2005 Texas Instruments Incorporated
C:\DOCUME~1\ADMINI~1\LOCALS~1\Temp\TI9922                            PAGE  109

    5511                      .dwattr DW$704, DW_AT_accessibility(DW_ACCESS_public)
    5512              DW$705  .dwtag  DW_TAG_member, DW_AT_type(*DW$T$19)
    5513                      .dwattr DW$705, DW_AT_name("CHPDUTY"), DW_AT_symbol_name("_CHPDUTY")
    5514                      .dwattr DW$705, DW_AT_bit_offset(0x05), DW_AT_bit_size(0x03)
    5515                      .dwattr DW$705, DW_AT_data_member_location[DW_OP_plus_uconst 0x0]
    5516                      .dwattr DW$705, DW_AT_accessibility(DW_ACCESS_public)
    5517              DW$706  .dwtag  DW_TAG_member, DW_AT_type(*DW$T$19)
    5518                      .dwattr DW$706, DW_AT_name("rsvd1"), DW_AT_symbol_name("_rsvd1")
    5519                      .dwattr DW$706, DW_AT_bit_offset(0x00), DW_AT_bit_size(0x05)
    5520                      .dwattr DW$706, DW_AT_data_member_location[DW_OP_plus_uconst 0x0]
    5521                      .dwattr DW$706, DW_AT_accessibility(DW_ACCESS_public)
    5522                      .dwendtag DW$T$87
    5523              
    5524              
    5525              DW$T$89 .dwtag  DW_TAG_structure_type
    5526                      .dwattr DW$T$89, DW_AT_name("HRCNFG_BITS")
    5527                      .dwattr DW$T$89, DW_AT_byte_size(0x01)
    5528              DW$707  .dwtag  DW_TAG_member, DW_AT_type(*DW$T$19)
    5529                      .dwattr DW$707, DW_AT_name("EDGMODE"), DW_AT_symbol_name("_EDGMODE")
    5530                      .dwattr DW$707, DW_AT_bit_offset(0x0e), DW_AT_bit_size(0x02)
    5531                      .dwattr DW$707, DW_AT_data_member_location[DW_OP_plus_uconst 0x0]
    5532                      .dwattr DW$707, DW_AT_accessibility(DW_ACCESS_public)
    5533              DW$708  .dwtag  DW_TAG_member, DW_AT_type(*DW$T$19)
    5534                      .dwattr DW$708, DW_AT_name("CTLMODE"), DW_AT_symbol_name("_CTLMODE")
    5535                      .dwattr DW$708, DW_AT_bit_offset(0x0d), DW_AT_bit_size(0x01)
    5536                      .dwattr DW$708, DW_AT_data_member_location[DW_OP_plus_uconst 0x0]
    5537                      .dwattr DW$708, DW_AT_accessibility(DW_ACCESS_public)
    5538              DW$709  .dwtag  DW_TAG_member, DW_AT_type(*DW$T$19)
    5539                      .dwattr DW$709, DW_AT_name("HRLOAD"), DW_AT_symbol_name("_HRLOAD")
    5540                      .dwattr DW$709, DW_AT_bit_offset(0x0c), DW_AT_bit_size(0x01)
    5541                      .dwattr DW$709, DW_AT_data_member_location[DW_OP_plus_uconst 0x0]
    5542                      .dwattr DW$709, DW_AT_accessibility(DW_ACCESS_public)
    5543              DW$710  .dwtag  DW_TAG_member, DW_AT_type(*DW$T$19)
    5544                      .dwattr DW$710, DW_AT_name("rsvd1"), DW_AT_symbol_name("_rsvd1")
    5545                      .dwattr DW$710, DW_AT_bit_offset(0x00), DW_AT_bit_size(0x0c)
    5546                      .dwattr DW$710, DW_AT_data_member_location[DW_OP_plus_uconst 0x0]
    5547                      .dwattr DW$710, DW_AT_accessibility(DW_ACCESS_public)
    5548                      .dwendtag DW$T$89
    5549              
    5550              
    5551              DW$T$92 .dwtag  DW_TAG_structure_type
    5552                      .dwattr DW$T$92, DW_AT_name("GPACTRL_BITS")
    5553                      .dwattr DW$T$92, DW_AT_byte_size(0x02)
    5554              DW$711  .dwtag  DW_TAG_member, DW_AT_type(*DW$T$19)
    5555                      .dwattr DW$711, DW_AT_name("QUALPRD0"), DW_AT_symbol_name("_QUALPRD0")
    5556                      .dwattr DW$711, DW_AT_bit_offset(0x08), DW_AT_bit_size(0x08)
    5557                      .dwattr DW$711, DW_AT_data_member_location[DW_OP_plus_uconst 0x0]
    5558                      .dwattr DW$711, DW_AT_accessibility(DW_ACCESS_public)
    5559              DW$712  .dwtag  DW_TAG_member, DW_AT_type(*DW$T$19)
    5560                      .dwattr DW$712, DW_AT_name("QUALPRD1"), DW_AT_symbol_name("_QUALPRD1")
    5561                      .dwattr DW$712, DW_AT_bit_offset(0x00), DW_AT_bit_size(0x08)
    5562                      .dwattr DW$712, DW_AT_data_member_location[DW_OP_plus_uconst 0x0]
    5563                      .dwattr DW$712, DW_AT_accessibility(DW_ACCESS_public)
    5564              DW$713  .dwtag  DW_TAG_member, DW_AT_type(*DW$T$19)
    5565                      .dwattr DW$713, DW_AT_name("QUALPRD2"), DW_AT_symbol_name("_QUALPRD2")
TMS320C2000 COFF Assembler PC v4.1.0 Mon Dec 21 14:54:55 2009

Tools Copyright (c) 1996-2005 Texas Instruments Incorporated
C:\DOCUME~1\ADMINI~1\LOCALS~1\Temp\TI9922                            PAGE  110

    5566                      .dwattr DW$713, DW_AT_bit_offset(0x08), DW_AT_bit_size(0x08)
    5567                      .dwattr DW$713, DW_AT_data_member_location[DW_OP_plus_uconst 0x1]
    5568                      .dwattr DW$713, DW_AT_accessibility(DW_ACCESS_public)
    5569              DW$714  .dwtag  DW_TAG_member, DW_AT_type(*DW$T$19)
    5570                      .dwattr DW$714, DW_AT_name("QUALPRD3"), DW_AT_symbol_name("_QUALPRD3")
    5571                      .dwattr DW$714, DW_AT_bit_offset(0x00), DW_AT_bit_size(0x08)
    5572                      .dwattr DW$714, DW_AT_data_member_location[DW_OP_plus_uconst 0x1]
    5573                      .dwattr DW$714, DW_AT_accessibility(DW_ACCESS_public)
    5574                      .dwendtag DW$T$92
    5575              
    5576              
    5577              DW$T$94 .dwtag  DW_TAG_structure_type
    5578                      .dwattr DW$T$94, DW_AT_name("GPA1_BITS")
    5579                      .dwattr DW$T$94, DW_AT_byte_size(0x02)
    5580              DW$715  .dwtag  DW_TAG_member, DW_AT_type(*DW$T$19)
    5581                      .dwattr DW$715, DW_AT_name("GPIO0"), DW_AT_symbol_name("_GPIO0")
    5582                      .dwattr DW$715, DW_AT_bit_offset(0x0e), DW_AT_bit_size(0x02)
    5583                      .dwattr DW$715, DW_AT_data_member_location[DW_OP_plus_uconst 0x0]
    5584                      .dwattr DW$715, DW_AT_accessibility(DW_ACCESS_public)
    5585              DW$716  .dwtag  DW_TAG_member, DW_AT_type(*DW$T$19)
    5586                      .dwattr DW$716, DW_AT_name("GPIO1"), DW_AT_symbol_name("_GPIO1")
    5587                      .dwattr DW$716, DW_AT_bit_offset(0x0c), DW_AT_bit_size(0x02)
    5588                      .dwattr DW$716, DW_AT_data_member_location[DW_OP_plus_uconst 0x0]
    5589                      .dwattr DW$716, DW_AT_accessibility(DW_ACCESS_public)
    5590              DW$717  .dwtag  DW_TAG_member, DW_AT_type(*DW$T$19)
    5591                      .dwattr DW$717, DW_AT_name("GPIO2"), DW_AT_symbol_name("_GPIO2")
    5592                      .dwattr DW$717, DW_AT_bit_offset(0x0a), DW_AT_bit_size(0x02)
    5593                      .dwattr DW$717, DW_AT_data_member_location[DW_OP_plus_uconst 0x0]
    5594                      .dwattr DW$717, DW_AT_accessibility(DW_ACCESS_public)
    5595              DW$718  .dwtag  DW_TAG_member, DW_AT_type(*DW$T$19)
    5596                      .dwattr DW$718, DW_AT_name("GPIO3"), DW_AT_symbol_name("_GPIO3")
    5597                      .dwattr DW$718, DW_AT_bit_offset(0x08), DW_AT_bit_size(0x02)
    5598                      .dwattr DW$718, DW_AT_data_member_location[DW_OP_plus_uconst 0x0]
    5599                      .dwattr DW$718, DW_AT_accessibility(DW_ACCESS_public)
    5600              DW$719  .dwtag  DW_TAG_member, DW_AT_type(*DW$T$19)
    5601                      .dwattr DW$719, DW_AT_name("GPIO4"), DW_AT_symbol_name("_GPIO4")
    5602                      .dwattr DW$719, DW_AT_bit_offset(0x06), DW_AT_bit_size(0x02)
    5603                      .dwattr DW$719, DW_AT_data_member_location[DW_OP_plus_uconst 0x0]
    5604                      .dwattr DW$719, DW_AT_accessibility(DW_ACCESS_public)
    5605              DW$720  .dwtag  DW_TAG_member, DW_AT_type(*DW$T$19)
    5606                      .dwattr DW$720, DW_AT_name("GPIO5"), DW_AT_symbol_name("_GPIO5")
    5607                      .dwattr DW$720, DW_AT_bit_offset(0x04), DW_AT_bit_size(0x02)
    5608                      .dwattr DW$720, DW_AT_data_member_location[DW_OP_plus_uconst 0x0]
    5609                      .dwattr DW$720, DW_AT_accessibility(DW_ACCESS_public)
    5610              DW$721  .dwtag  DW_TAG_member, DW_AT_type(*DW$T$19)
    5611                      .dwattr DW$721, DW_AT_name("GPIO6"), DW_AT_symbol_name("_GPIO6")
    5612                      .dwattr DW$721, DW_AT_bit_offset(0x02), DW_AT_bit_size(0x02)
    5613                      .dwattr DW$721, DW_AT_data_member_location[DW_OP_plus_uconst 0x0]
    5614                      .dwattr DW$721, DW_AT_accessibility(DW_ACCESS_public)
    5615              DW$722  .dwtag  DW_TAG_member, DW_AT_type(*DW$T$19)
    5616                      .dwattr DW$722, DW_AT_name("GPIO7"), DW_AT_symbol_name("_GPIO7")
    5617                      .dwattr DW$722, DW_AT_bit_offset(0x00), DW_AT_bit_size(0x02)
    5618                      .dwattr DW$722, DW_AT_data_member_location[DW_OP_plus_uconst 0x0]
    5619                      .dwattr DW$722, DW_AT_accessibility(DW_ACCESS_public)
    5620              DW$723  .dwtag  DW_TAG_member, DW_AT_type(*DW$T$19)
TMS320C2000 COFF Assembler PC v4.1.0 Mon Dec 21 14:54:55 2009

Tools Copyright (c) 1996-2005 Texas Instruments Incorporated
C:\DOCUME~1\ADMINI~1\LOCALS~1\Temp\TI9922                            PAGE  111

    5621                      .dwattr DW$723, DW_AT_name("GPIO8"), DW_AT_symbol_name("_GPIO8")
    5622                      .dwattr DW$723, DW_AT_bit_offset(0x0e), DW_AT_bit_size(0x02)
    5623                      .dwattr DW$723, DW_AT_data_member_location[DW_OP_plus_uconst 0x1]
    5624                      .dwattr DW$723, DW_AT_accessibility(DW_ACCESS_public)
    5625              DW$724  .dwtag  DW_TAG_member, DW_AT_type(*DW$T$19)
    5626                      .dwattr DW$724, DW_AT_name("GPIO9"), DW_AT_symbol_name("_GPIO9")
    5627                      .dwattr DW$724, DW_AT_bit_offset(0x0c), DW_AT_bit_size(0x02)
    5628                      .dwattr DW$724, DW_AT_data_member_location[DW_OP_plus_uconst 0x1]
    5629                      .dwattr DW$724, DW_AT_accessibility(DW_ACCESS_public)
    5630              DW$725  .dwtag  DW_TAG_member, DW_AT_type(*DW$T$19)
    5631                      .dwattr DW$725, DW_AT_name("GPIO10"), DW_AT_symbol_name("_GPIO10")
    5632                      .dwattr DW$725, DW_AT_bit_offset(0x0a), DW_AT_bit_size(0x02)
    5633                      .dwattr DW$725, DW_AT_data_member_location[DW_OP_plus_uconst 0x1]
    5634                      .dwattr DW$725, DW_AT_accessibility(DW_ACCESS_public)
    5635              DW$726  .dwtag  DW_TAG_member, DW_AT_type(*DW$T$19)
    5636                      .dwattr DW$726, DW_AT_name("GPIO11"), DW_AT_symbol_name("_GPIO11")
    5637                      .dwattr DW$726, DW_AT_bit_offset(0x08), DW_AT_bit_size(0x02)
    5638                      .dwattr DW$726, DW_AT_data_member_location[DW_OP_plus_uconst 0x1]
    5639                      .dwattr DW$726, DW_AT_accessibility(DW_ACCESS_public)
    5640              DW$727  .dwtag  DW_TAG_member, DW_AT_type(*DW$T$19)
    5641                      .dwattr DW$727, DW_AT_name("GPIO12"), DW_AT_symbol_name("_GPIO12")
    5642                      .dwattr DW$727, DW_AT_bit_offset(0x06), DW_AT_bit_size(0x02)
    5643                      .dwattr DW$727, DW_AT_data_member_location[DW_OP_plus_uconst 0x1]
    5644                      .dwattr DW$727, DW_AT_accessibility(DW_ACCESS_public)
    5645              DW$728  .dwtag  DW_TAG_member, DW_AT_type(*DW$T$19)
    5646                      .dwattr DW$728, DW_AT_name("GPIO13"), DW_AT_symbol_name("_GPIO13")
    5647                      .dwattr DW$728, DW_AT_bit_offset(0x04), DW_AT_bit_size(0x02)
    5648                      .dwattr DW$728, DW_AT_data_member_location[DW_OP_plus_uconst 0x1]
    5649                      .dwattr DW$728, DW_AT_accessibility(DW_ACCESS_public)
    5650              DW$729  .dwtag  DW_TAG_member, DW_AT_type(*DW$T$19)
    5651                      .dwattr DW$729, DW_AT_name("GPIO14"), DW_AT_symbol_name("_GPIO14")
    5652                      .dwattr DW$729, DW_AT_bit_offset(0x02), DW_AT_bit_size(0x02)
    5653                      .dwattr DW$729, DW_AT_data_member_location[DW_OP_plus_uconst 0x1]
    5654                      .dwattr DW$729, DW_AT_accessibility(DW_ACCESS_public)
    5655              DW$730  .dwtag  DW_TAG_member, DW_AT_type(*DW$T$19)
    5656                      .dwattr DW$730, DW_AT_name("GPIO15"), DW_AT_symbol_name("_GPIO15")
    5657                      .dwattr DW$730, DW_AT_bit_offset(0x00), DW_AT_bit_size(0x02)
    5658                      .dwattr DW$730, DW_AT_data_member_location[DW_OP_plus_uconst 0x1]
    5659                      .dwattr DW$730, DW_AT_accessibility(DW_ACCESS_public)
    5660                      .dwendtag DW$T$94
    5661              
    5662              
    5663              DW$T$96 .dwtag  DW_TAG_structure_type
    5664                      .dwattr DW$T$96, DW_AT_name("GPA2_BITS")
    5665                      .dwattr DW$T$96, DW_AT_byte_size(0x02)
    5666              DW$731  .dwtag  DW_TAG_member, DW_AT_type(*DW$T$19)
    5667                      .dwattr DW$731, DW_AT_name("GPIO16"), DW_AT_symbol_name("_GPIO16")
    5668                      .dwattr DW$731, DW_AT_bit_offset(0x0e), DW_AT_bit_size(0x02)
    5669                      .dwattr DW$731, DW_AT_data_member_location[DW_OP_plus_uconst 0x0]
    5670                      .dwattr DW$731, DW_AT_accessibility(DW_ACCESS_public)
    5671              DW$732  .dwtag  DW_TAG_member, DW_AT_type(*DW$T$19)
    5672                      .dwattr DW$732, DW_AT_name("GPIO17"), DW_AT_symbol_name("_GPIO17")
    5673                      .dwattr DW$732, DW_AT_bit_offset(0x0c), DW_AT_bit_size(0x02)
    5674                      .dwattr DW$732, DW_AT_data_member_location[DW_OP_plus_uconst 0x0]
    5675                      .dwattr DW$732, DW_AT_accessibility(DW_ACCESS_public)
TMS320C2000 COFF Assembler PC v4.1.0 Mon Dec 21 14:54:55 2009

Tools Copyright (c) 1996-2005 Texas Instruments Incorporated
C:\DOCUME~1\ADMINI~1\LOCALS~1\Temp\TI9922                            PAGE  112

    5676              DW$733  .dwtag  DW_TAG_member, DW_AT_type(*DW$T$19)
    5677                      .dwattr DW$733, DW_AT_name("GPIO18"), DW_AT_symbol_name("_GPIO18")
    5678                      .dwattr DW$733, DW_AT_bit_offset(0x0a), DW_AT_bit_size(0x02)
    5679                      .dwattr DW$733, DW_AT_data_member_location[DW_OP_plus_uconst 0x0]
    5680                      .dwattr DW$733, DW_AT_accessibility(DW_ACCESS_public)
    5681              DW$734  .dwtag  DW_TAG_member, DW_AT_type(*DW$T$19)
    5682                      .dwattr DW$734, DW_AT_name("GPIO19"), DW_AT_symbol_name("_GPIO19")
    5683                      .dwattr DW$734, DW_AT_bit_offset(0x08), DW_AT_bit_size(0x02)
    5684                      .dwattr DW$734, DW_AT_data_member_location[DW_OP_plus_uconst 0x0]
    5685                      .dwattr DW$734, DW_AT_accessibility(DW_ACCESS_public)
    5686              DW$735  .dwtag  DW_TAG_member, DW_AT_type(*DW$T$19)
    5687                      .dwattr DW$735, DW_AT_name("GPIO20"), DW_AT_symbol_name("_GPIO20")
    5688                      .dwattr DW$735, DW_AT_bit_offset(0x06), DW_AT_bit_size(0x02)
    5689                      .dwattr DW$735, DW_AT_data_member_location[DW_OP_plus_uconst 0x0]
    5690                      .dwattr DW$735, DW_AT_accessibility(DW_ACCESS_public)
    5691              DW$736  .dwtag  DW_TAG_member, DW_AT_type(*DW$T$19)
    5692                      .dwattr DW$736, DW_AT_name("GPIO21"), DW_AT_symbol_name("_GPIO21")
    5693                      .dwattr DW$736, DW_AT_bit_offset(0x04), DW_AT_bit_size(0x02)
    5694                      .dwattr DW$736, DW_AT_data_member_location[DW_OP_plus_uconst 0x0]
    5695                      .dwattr DW$736, DW_AT_accessibility(DW_ACCESS_public)
    5696              DW$737  .dwtag  DW_TAG_member, DW_AT_type(*DW$T$19)
    5697                      .dwattr DW$737, DW_AT_name("GPIO22"), DW_AT_symbol_name("_GPIO22")
    5698                      .dwattr DW$737, DW_AT_bit_offset(0x02), DW_AT_bit_size(0x02)
    5699                      .dwattr DW$737, DW_AT_data_member_location[DW_OP_plus_uconst 0x0]
    5700                      .dwattr DW$737, DW_AT_accessibility(DW_ACCESS_public)
    5701              DW$738  .dwtag  DW_TAG_member, DW_AT_type(*DW$T$19)
    5702                      .dwattr DW$738, DW_AT_name("GPIO23"), DW_AT_symbol_name("_GPIO23")
    5703                      .dwattr DW$738, DW_AT_bit_offset(0x00), DW_AT_bit_size(0x02)
    5704                      .dwattr DW$738, DW_AT_data_member_location[DW_OP_plus_uconst 0x0]
    5705                      .dwattr DW$738, DW_AT_accessibility(DW_ACCESS_public)
    5706              DW$739  .dwtag  DW_TAG_member, DW_AT_type(*DW$T$19)
    5707                      .dwattr DW$739, DW_AT_name("GPIO24"), DW_AT_symbol_name("_GPIO24")
    5708                      .dwattr DW$739, DW_AT_bit_offset(0x0e), DW_AT_bit_size(0x02)
    5709                      .dwattr DW$739, DW_AT_data_member_location[DW_OP_plus_uconst 0x1]
    5710                      .dwattr DW$739, DW_AT_accessibility(DW_ACCESS_public)
    5711              DW$740  .dwtag  DW_TAG_member, DW_AT_type(*DW$T$19)
    5712                      .dwattr DW$740, DW_AT_name("GPIO25"), DW_AT_symbol_name("_GPIO25")
    5713                      .dwattr DW$740, DW_AT_bit_offset(0x0c), DW_AT_bit_size(0x02)
    5714                      .dwattr DW$740, DW_AT_data_member_location[DW_OP_plus_uconst 0x1]
    5715                      .dwattr DW$740, DW_AT_accessibility(DW_ACCESS_public)
    5716              DW$741  .dwtag  DW_TAG_member, DW_AT_type(*DW$T$19)
    5717                      .dwattr DW$741, DW_AT_name("GPIO26"), DW_AT_symbol_name("_GPIO26")
    5718                      .dwattr DW$741, DW_AT_bit_offset(0x0a), DW_AT_bit_size(0x02)
    5719                      .dwattr DW$741, DW_AT_data_member_location[DW_OP_plus_uconst 0x1]
    5720                      .dwattr DW$741, DW_AT_accessibility(DW_ACCESS_public)
    5721              DW$742  .dwtag  DW_TAG_member, DW_AT_type(*DW$T$19)
    5722                      .dwattr DW$742, DW_AT_name("GPIO27"), DW_AT_symbol_name("_GPIO27")
    5723                      .dwattr DW$742, DW_AT_bit_offset(0x08), DW_AT_bit_size(0x02)
    5724                      .dwattr DW$742, DW_AT_data_member_location[DW_OP_plus_uconst 0x1]
    5725                      .dwattr DW$742, DW_AT_accessibility(DW_ACCESS_public)
    5726              DW$743  .dwtag  DW_TAG_member, DW_AT_type(*DW$T$19)
    5727                      .dwattr DW$743, DW_AT_name("GPIO28"), DW_AT_symbol_name("_GPIO28")
    5728                      .dwattr DW$743, DW_AT_bit_offset(0x06), DW_AT_bit_size(0x02)
    5729                      .dwattr DW$743, DW_AT_data_member_location[DW_OP_plus_uconst 0x1]
    5730                      .dwattr DW$743, DW_AT_accessibility(DW_ACCESS_public)
TMS320C2000 COFF Assembler PC v4.1.0 Mon Dec 21 14:54:55 2009

Tools Copyright (c) 1996-2005 Texas Instruments Incorporated
C:\DOCUME~1\ADMINI~1\LOCALS~1\Temp\TI9922                            PAGE  113

    5731              DW$744  .dwtag  DW_TAG_member, DW_AT_type(*DW$T$19)
    5732                      .dwattr DW$744, DW_AT_name("GPIO29"), DW_AT_symbol_name("_GPIO29")
    5733                      .dwattr DW$744, DW_AT_bit_offset(0x04), DW_AT_bit_size(0x02)
    5734                      .dwattr DW$744, DW_AT_data_member_location[DW_OP_plus_uconst 0x1]
    5735                      .dwattr DW$744, DW_AT_accessibility(DW_ACCESS_public)
    5736              DW$745  .dwtag  DW_TAG_member, DW_AT_type(*DW$T$19)
    5737                      .dwattr DW$745, DW_AT_name("GPIO30"), DW_AT_symbol_name("_GPIO30")
    5738                      .dwattr DW$745, DW_AT_bit_offset(0x02), DW_AT_bit_size(0x02)
    5739                      .dwattr DW$745, DW_AT_data_member_location[DW_OP_plus_uconst 0x1]
    5740                      .dwattr DW$745, DW_AT_accessibility(DW_ACCESS_public)
    5741              DW$746  .dwtag  DW_TAG_member, DW_AT_type(*DW$T$19)
    5742                      .dwattr DW$746, DW_AT_name("GPIO31"), DW_AT_symbol_name("_GPIO31")
    5743                      .dwattr DW$746, DW_AT_bit_offset(0x00), DW_AT_bit_size(0x02)
    5744                      .dwattr DW$746, DW_AT_data_member_location[DW_OP_plus_uconst 0x1]
    5745                      .dwattr DW$746, DW_AT_accessibility(DW_ACCESS_public)
    5746                      .dwendtag DW$T$96
    5747              
    5748              
    5749              DW$T$98 .dwtag  DW_TAG_structure_type
    5750                      .dwattr DW$T$98, DW_AT_name("GPADAT_BITS")
    5751                      .dwattr DW$T$98, DW_AT_byte_size(0x02)
    5752              DW$747  .dwtag  DW_TAG_member, DW_AT_type(*DW$T$19)
    5753                      .dwattr DW$747, DW_AT_name("GPIO0"), DW_AT_symbol_name("_GPIO0")
    5754                      .dwattr DW$747, DW_AT_bit_offset(0x0f), DW_AT_bit_size(0x01)
    5755                      .dwattr DW$747, DW_AT_data_member_location[DW_OP_plus_uconst 0x0]
    5756                      .dwattr DW$747, DW_AT_accessibility(DW_ACCESS_public)
    5757              DW$748  .dwtag  DW_TAG_member, DW_AT_type(*DW$T$19)
    5758                      .dwattr DW$748, DW_AT_name("GPIO1"), DW_AT_symbol_name("_GPIO1")
    5759                      .dwattr DW$748, DW_AT_bit_offset(0x0e), DW_AT_bit_size(0x01)
    5760                      .dwattr DW$748, DW_AT_data_member_location[DW_OP_plus_uconst 0x0]
    5761                      .dwattr DW$748, DW_AT_accessibility(DW_ACCESS_public)
    5762              DW$749  .dwtag  DW_TAG_member, DW_AT_type(*DW$T$19)
    5763                      .dwattr DW$749, DW_AT_name("GPIO2"), DW_AT_symbol_name("_GPIO2")
    5764                      .dwattr DW$749, DW_AT_bit_offset(0x0d), DW_AT_bit_size(0x01)
    5765                      .dwattr DW$749, DW_AT_data_member_location[DW_OP_plus_uconst 0x0]
    5766                      .dwattr DW$749, DW_AT_accessibility(DW_ACCESS_public)
    5767              DW$750  .dwtag  DW_TAG_member, DW_AT_type(*DW$T$19)
    5768                      .dwattr DW$750, DW_AT_name("GPIO3"), DW_AT_symbol_name("_GPIO3")
    5769                      .dwattr DW$750, DW_AT_bit_offset(0x0c), DW_AT_bit_size(0x01)
    5770                      .dwattr DW$750, DW_AT_data_member_location[DW_OP_plus_uconst 0x0]
    5771                      .dwattr DW$750, DW_AT_accessibility(DW_ACCESS_public)
    5772              DW$751  .dwtag  DW_TAG_member, DW_AT_type(*DW$T$19)
    5773                      .dwattr DW$751, DW_AT_name("GPIO4"), DW_AT_symbol_name("_GPIO4")
    5774                      .dwattr DW$751, DW_AT_bit_offset(0x0b), DW_AT_bit_size(0x01)
    5775                      .dwattr DW$751, DW_AT_data_member_location[DW_OP_plus_uconst 0x0]
    5776                      .dwattr DW$751, DW_AT_accessibility(DW_ACCESS_public)
    5777              DW$752  .dwtag  DW_TAG_member, DW_AT_type(*DW$T$19)
    5778                      .dwattr DW$752, DW_AT_name("GPIO5"), DW_AT_symbol_name("_GPIO5")
    5779                      .dwattr DW$752, DW_AT_bit_offset(0x0a), DW_AT_bit_size(0x01)
    5780                      .dwattr DW$752, DW_AT_data_member_location[DW_OP_plus_uconst 0x0]
    5781                      .dwattr DW$752, DW_AT_accessibility(DW_ACCESS_public)
    5782              DW$753  .dwtag  DW_TAG_member, DW_AT_type(*DW$T$19)
    5783                      .dwattr DW$753, DW_AT_name("GPIO6"), DW_AT_symbol_name("_GPIO6")
    5784                      .dwattr DW$753, DW_AT_bit_offset(0x09), DW_AT_bit_size(0x01)
    5785                      .dwattr DW$753, DW_AT_data_member_location[DW_OP_plus_uconst 0x0]
TMS320C2000 COFF Assembler PC v4.1.0 Mon Dec 21 14:54:55 2009

Tools Copyright (c) 1996-2005 Texas Instruments Incorporated
C:\DOCUME~1\ADMINI~1\LOCALS~1\Temp\TI9922                            PAGE  114

    5786                      .dwattr DW$753, DW_AT_accessibility(DW_ACCESS_public)
    5787              DW$754  .dwtag  DW_TAG_member, DW_AT_type(*DW$T$19)
    5788                      .dwattr DW$754, DW_AT_name("GPIO7"), DW_AT_symbol_name("_GPIO7")
    5789                      .dwattr DW$754, DW_AT_bit_offset(0x08), DW_AT_bit_size(0x01)
    5790                      .dwattr DW$754, DW_AT_data_member_location[DW_OP_plus_uconst 0x0]
    5791                      .dwattr DW$754, DW_AT_accessibility(DW_ACCESS_public)
    5792              DW$755  .dwtag  DW_TAG_member, DW_AT_type(*DW$T$19)
    5793                      .dwattr DW$755, DW_AT_name("GPIO8"), DW_AT_symbol_name("_GPIO8")
    5794                      .dwattr DW$755, DW_AT_bit_offset(0x07), DW_AT_bit_size(0x01)
    5795                      .dwattr DW$755, DW_AT_data_member_location[DW_OP_plus_uconst 0x0]
    5796                      .dwattr DW$755, DW_AT_accessibility(DW_ACCESS_public)
    5797              DW$756  .dwtag  DW_TAG_member, DW_AT_type(*DW$T$19)
    5798                      .dwattr DW$756, DW_AT_name("GPIO9"), DW_AT_symbol_name("_GPIO9")
    5799                      .dwattr DW$756, DW_AT_bit_offset(0x06), DW_AT_bit_size(0x01)
    5800                      .dwattr DW$756, DW_AT_data_member_location[DW_OP_plus_uconst 0x0]
    5801                      .dwattr DW$756, DW_AT_accessibility(DW_ACCESS_public)
    5802              DW$757  .dwtag  DW_TAG_member, DW_AT_type(*DW$T$19)
    5803                      .dwattr DW$757, DW_AT_name("GPIO10"), DW_AT_symbol_name("_GPIO10")
    5804                      .dwattr DW$757, DW_AT_bit_offset(0x05), DW_AT_bit_size(0x01)
    5805                      .dwattr DW$757, DW_AT_data_member_location[DW_OP_plus_uconst 0x0]
    5806                      .dwattr DW$757, DW_AT_accessibility(DW_ACCESS_public)
    5807              DW$758  .dwtag  DW_TAG_member, DW_AT_type(*DW$T$19)
    5808                      .dwattr DW$758, DW_AT_name("GPIO11"), DW_AT_symbol_name("_GPIO11")
    5809                      .dwattr DW$758, DW_AT_bit_offset(0x04), DW_AT_bit_size(0x01)
    5810                      .dwattr DW$758, DW_AT_data_member_location[DW_OP_plus_uconst 0x0]
    5811                      .dwattr DW$758, DW_AT_accessibility(DW_ACCESS_public)
    5812              DW$759  .dwtag  DW_TAG_member, DW_AT_type(*DW$T$19)
    5813                      .dwattr DW$759, DW_AT_name("GPIO12"), DW_AT_symbol_name("_GPIO12")
    5814                      .dwattr DW$759, DW_AT_bit_offset(0x03), DW_AT_bit_size(0x01)
    5815                      .dwattr DW$759, DW_AT_data_member_location[DW_OP_plus_uconst 0x0]
    5816                      .dwattr DW$759, DW_AT_accessibility(DW_ACCESS_public)
    5817              DW$760  .dwtag  DW_TAG_member, DW_AT_type(*DW$T$19)
    5818                      .dwattr DW$760, DW_AT_name("GPIO13"), DW_AT_symbol_name("_GPIO13")
    5819                      .dwattr DW$760, DW_AT_bit_offset(0x02), DW_AT_bit_size(0x01)
    5820                      .dwattr DW$760, DW_AT_data_member_location[DW_OP_plus_uconst 0x0]
    5821                      .dwattr DW$760, DW_AT_accessibility(DW_ACCESS_public)
    5822              DW$761  .dwtag  DW_TAG_member, DW_AT_type(*DW$T$19)
    5823                      .dwattr DW$761, DW_AT_name("GPIO14"), DW_AT_symbol_name("_GPIO14")
    5824                      .dwattr DW$761, DW_AT_bit_offset(0x01), DW_AT_bit_size(0x01)
    5825                      .dwattr DW$761, DW_AT_data_member_location[DW_OP_plus_uconst 0x0]
    5826                      .dwattr DW$761, DW_AT_accessibility(DW_ACCESS_public)
    5827              DW$762  .dwtag  DW_TAG_member, DW_AT_type(*DW$T$19)
    5828                      .dwattr DW$762, DW_AT_name("GPIO15"), DW_AT_symbol_name("_GPIO15")
    5829                      .dwattr DW$762, DW_AT_bit_offset(0x00), DW_AT_bit_size(0x01)
    5830                      .dwattr DW$762, DW_AT_data_member_location[DW_OP_plus_uconst 0x0]
    5831                      .dwattr DW$762, DW_AT_accessibility(DW_ACCESS_public)
    5832              DW$763  .dwtag  DW_TAG_member, DW_AT_type(*DW$T$19)
    5833                      .dwattr DW$763, DW_AT_name("GPIO16"), DW_AT_symbol_name("_GPIO16")
    5834                      .dwattr DW$763, DW_AT_bit_offset(0x0f), DW_AT_bit_size(0x01)
    5835                      .dwattr DW$763, DW_AT_data_member_location[DW_OP_plus_uconst 0x1]
    5836                      .dwattr DW$763, DW_AT_accessibility(DW_ACCESS_public)
    5837              DW$764  .dwtag  DW_TAG_member, DW_AT_type(*DW$T$19)
    5838                      .dwattr DW$764, DW_AT_name("GPIO17"), DW_AT_symbol_name("_GPIO17")
    5839                      .dwattr DW$764, DW_AT_bit_offset(0x0e), DW_AT_bit_size(0x01)
    5840                      .dwattr DW$764, DW_AT_data_member_location[DW_OP_plus_uconst 0x1]
TMS320C2000 COFF Assembler PC v4.1.0 Mon Dec 21 14:54:55 2009

Tools Copyright (c) 1996-2005 Texas Instruments Incorporated
C:\DOCUME~1\ADMINI~1\LOCALS~1\Temp\TI9922                            PAGE  115

    5841                      .dwattr DW$764, DW_AT_accessibility(DW_ACCESS_public)
    5842              DW$765  .dwtag  DW_TAG_member, DW_AT_type(*DW$T$19)
    5843                      .dwattr DW$765, DW_AT_name("GPIO18"), DW_AT_symbol_name("_GPIO18")
    5844                      .dwattr DW$765, DW_AT_bit_offset(0x0d), DW_AT_bit_size(0x01)
    5845                      .dwattr DW$765, DW_AT_data_member_location[DW_OP_plus_uconst 0x1]
    5846                      .dwattr DW$765, DW_AT_accessibility(DW_ACCESS_public)
    5847              DW$766  .dwtag  DW_TAG_member, DW_AT_type(*DW$T$19)
    5848                      .dwattr DW$766, DW_AT_name("GPIO19"), DW_AT_symbol_name("_GPIO19")
    5849                      .dwattr DW$766, DW_AT_bit_offset(0x0c), DW_AT_bit_size(0x01)
    5850                      .dwattr DW$766, DW_AT_data_member_location[DW_OP_plus_uconst 0x1]
    5851                      .dwattr DW$766, DW_AT_accessibility(DW_ACCESS_public)
    5852              DW$767  .dwtag  DW_TAG_member, DW_AT_type(*DW$T$19)
    5853                      .dwattr DW$767, DW_AT_name("GPIO20"), DW_AT_symbol_name("_GPIO20")
    5854                      .dwattr DW$767, DW_AT_bit_offset(0x0b), DW_AT_bit_size(0x01)
    5855                      .dwattr DW$767, DW_AT_data_member_location[DW_OP_plus_uconst 0x1]
    5856                      .dwattr DW$767, DW_AT_accessibility(DW_ACCESS_public)
    5857              DW$768  .dwtag  DW_TAG_member, DW_AT_type(*DW$T$19)
    5858                      .dwattr DW$768, DW_AT_name("GPIO21"), DW_AT_symbol_name("_GPIO21")
    5859                      .dwattr DW$768, DW_AT_bit_offset(0x0a), DW_AT_bit_size(0x01)
    5860                      .dwattr DW$768, DW_AT_data_member_location[DW_OP_plus_uconst 0x1]
    5861                      .dwattr DW$768, DW_AT_accessibility(DW_ACCESS_public)
    5862              DW$769  .dwtag  DW_TAG_member, DW_AT_type(*DW$T$19)
    5863                      .dwattr DW$769, DW_AT_name("GPIO22"), DW_AT_symbol_name("_GPIO22")
    5864                      .dwattr DW$769, DW_AT_bit_offset(0x09), DW_AT_bit_size(0x01)
    5865                      .dwattr DW$769, DW_AT_data_member_location[DW_OP_plus_uconst 0x1]
    5866                      .dwattr DW$769, DW_AT_accessibility(DW_ACCESS_public)
    5867              DW$770  .dwtag  DW_TAG_member, DW_AT_type(*DW$T$19)
    5868                      .dwattr DW$770, DW_AT_name("GPIO23"), DW_AT_symbol_name("_GPIO23")
    5869                      .dwattr DW$770, DW_AT_bit_offset(0x08), DW_AT_bit_size(0x01)
    5870                      .dwattr DW$770, DW_AT_data_member_location[DW_OP_plus_uconst 0x1]
    5871                      .dwattr DW$770, DW_AT_accessibility(DW_ACCESS_public)
    5872              DW$771  .dwtag  DW_TAG_member, DW_AT_type(*DW$T$19)
    5873                      .dwattr DW$771, DW_AT_name("GPIO24"), DW_AT_symbol_name("_GPIO24")
    5874                      .dwattr DW$771, DW_AT_bit_offset(0x07), DW_AT_bit_size(0x01)
    5875                      .dwattr DW$771, DW_AT_data_member_location[DW_OP_plus_uconst 0x1]
    5876                      .dwattr DW$771, DW_AT_accessibility(DW_ACCESS_public)
    5877              DW$772  .dwtag  DW_TAG_member, DW_AT_type(*DW$T$19)
    5878                      .dwattr DW$772, DW_AT_name("GPIO25"), DW_AT_symbol_name("_GPIO25")
    5879                      .dwattr DW$772, DW_AT_bit_offset(0x06), DW_AT_bit_size(0x01)
    5880                      .dwattr DW$772, DW_AT_data_member_location[DW_OP_plus_uconst 0x1]
    5881                      .dwattr DW$772, DW_AT_accessibility(DW_ACCESS_public)
    5882              DW$773  .dwtag  DW_TAG_member, DW_AT_type(*DW$T$19)
    5883                      .dwattr DW$773, DW_AT_name("GPIO26"), DW_AT_symbol_name("_GPIO26")
    5884                      .dwattr DW$773, DW_AT_bit_offset(0x05), DW_AT_bit_size(0x01)
    5885                      .dwattr DW$773, DW_AT_data_member_location[DW_OP_plus_uconst 0x1]
    5886                      .dwattr DW$773, DW_AT_accessibility(DW_ACCESS_public)
    5887              DW$774  .dwtag  DW_TAG_member, DW_AT_type(*DW$T$19)
    5888                      .dwattr DW$774, DW_AT_name("GPIO27"), DW_AT_symbol_name("_GPIO27")
    5889                      .dwattr DW$774, DW_AT_bit_offset(0x04), DW_AT_bit_size(0x01)
    5890                      .dwattr DW$774, DW_AT_data_member_location[DW_OP_plus_uconst 0x1]
    5891                      .dwattr DW$774, DW_AT_accessibility(DW_ACCESS_public)
    5892              DW$775  .dwtag  DW_TAG_member, DW_AT_type(*DW$T$19)
    5893                      .dwattr DW$775, DW_AT_name("GPIO28"), DW_AT_symbol_name("_GPIO28")
    5894                      .dwattr DW$775, DW_AT_bit_offset(0x03), DW_AT_bit_size(0x01)
    5895                      .dwattr DW$775, DW_AT_data_member_location[DW_OP_plus_uconst 0x1]
TMS320C2000 COFF Assembler PC v4.1.0 Mon Dec 21 14:54:55 2009

Tools Copyright (c) 1996-2005 Texas Instruments Incorporated
C:\DOCUME~1\ADMINI~1\LOCALS~1\Temp\TI9922                            PAGE  116

    5896                      .dwattr DW$775, DW_AT_accessibility(DW_ACCESS_public)
    5897              DW$776  .dwtag  DW_TAG_member, DW_AT_type(*DW$T$19)
    5898                      .dwattr DW$776, DW_AT_name("GPIO29"), DW_AT_symbol_name("_GPIO29")
    5899                      .dwattr DW$776, DW_AT_bit_offset(0x02), DW_AT_bit_size(0x01)
    5900                      .dwattr DW$776, DW_AT_data_member_location[DW_OP_plus_uconst 0x1]
    5901                      .dwattr DW$776, DW_AT_accessibility(DW_ACCESS_public)
    5902              DW$777  .dwtag  DW_TAG_member, DW_AT_type(*DW$T$19)
    5903                      .dwattr DW$777, DW_AT_name("GPIO30"), DW_AT_symbol_name("_GPIO30")
    5904                      .dwattr DW$777, DW_AT_bit_offset(0x01), DW_AT_bit_size(0x01)
    5905                      .dwattr DW$777, DW_AT_data_member_location[DW_OP_plus_uconst 0x1]
    5906                      .dwattr DW$777, DW_AT_accessibility(DW_ACCESS_public)
    5907              DW$778  .dwtag  DW_TAG_member, DW_AT_type(*DW$T$19)
    5908                      .dwattr DW$778, DW_AT_name("GPIO31"), DW_AT_symbol_name("_GPIO31")
    5909                      .dwattr DW$778, DW_AT_bit_offset(0x00), DW_AT_bit_size(0x01)
    5910                      .dwattr DW$778, DW_AT_data_member_location[DW_OP_plus_uconst 0x1]
    5911                      .dwattr DW$778, DW_AT_accessibility(DW_ACCESS_public)
    5912                      .dwendtag DW$T$98
    5913              
    5914              
    5915              DW$T$100        .dwtag  DW_TAG_structure_type
    5916                      .dwattr DW$T$100, DW_AT_name("GPBCTRL_BITS")
    5917                      .dwattr DW$T$100, DW_AT_byte_size(0x02)
    5918              DW$779  .dwtag  DW_TAG_member, DW_AT_type(*DW$T$19)
    5919                      .dwattr DW$779, DW_AT_name("QUALPRD0"), DW_AT_symbol_name("_QUALPRD0")
    5920                      .dwattr DW$779, DW_AT_bit_offset(0x08), DW_AT_bit_size(0x08)
    5921                      .dwattr DW$779, DW_AT_data_member_location[DW_OP_plus_uconst 0x0]
    5922                      .dwattr DW$779, DW_AT_accessibility(DW_ACCESS_public)
    5923              DW$780  .dwtag  DW_TAG_member, DW_AT_type(*DW$T$19)
    5924                      .dwattr DW$780, DW_AT_name("rsvd1"), DW_AT_symbol_name("_rsvd1")
    5925                      .dwattr DW$780, DW_AT_bit_offset(0x00), DW_AT_bit_size(0x08)
    5926                      .dwattr DW$780, DW_AT_data_member_location[DW_OP_plus_uconst 0x0]
    5927                      .dwattr DW$780, DW_AT_accessibility(DW_ACCESS_public)
    5928              DW$781  .dwtag  DW_TAG_member, DW_AT_type(*DW$T$19)
    5929                      .dwattr DW$781, DW_AT_name("rsvd2"), DW_AT_symbol_name("_rsvd2")
    5930                      .dwattr DW$781, DW_AT_bit_offset(0x00), DW_AT_bit_size(0x10)
    5931                      .dwattr DW$781, DW_AT_data_member_location[DW_OP_plus_uconst 0x1]
    5932                      .dwattr DW$781, DW_AT_accessibility(DW_ACCESS_public)
    5933                      .dwendtag DW$T$100
    5934              
    5935              
    5936              DW$T$102        .dwtag  DW_TAG_structure_type
    5937                      .dwattr DW$T$102, DW_AT_name("GPB1_BITS")
    5938                      .dwattr DW$T$102, DW_AT_byte_size(0x02)
    5939              DW$782  .dwtag  DW_TAG_member, DW_AT_type(*DW$T$19)
    5940                      .dwattr DW$782, DW_AT_name("GPIO32"), DW_AT_symbol_name("_GPIO32")
    5941                      .dwattr DW$782, DW_AT_bit_offset(0x0e), DW_AT_bit_size(0x02)
    5942                      .dwattr DW$782, DW_AT_data_member_location[DW_OP_plus_uconst 0x0]
    5943                      .dwattr DW$782, DW_AT_accessibility(DW_ACCESS_public)
    5944              DW$783  .dwtag  DW_TAG_member, DW_AT_type(*DW$T$19)
    5945                      .dwattr DW$783, DW_AT_name("GPIO33"), DW_AT_symbol_name("_GPIO33")
    5946                      .dwattr DW$783, DW_AT_bit_offset(0x0c), DW_AT_bit_size(0x02)
    5947                      .dwattr DW$783, DW_AT_data_member_location[DW_OP_plus_uconst 0x0]
    5948                      .dwattr DW$783, DW_AT_accessibility(DW_ACCESS_public)
    5949              DW$784  .dwtag  DW_TAG_member, DW_AT_type(*DW$T$19)
    5950                      .dwattr DW$784, DW_AT_name("GPIO34"), DW_AT_symbol_name("_GPIO34")
TMS320C2000 COFF Assembler PC v4.1.0 Mon Dec 21 14:54:55 2009

Tools Copyright (c) 1996-2005 Texas Instruments Incorporated
C:\DOCUME~1\ADMINI~1\LOCALS~1\Temp\TI9922                            PAGE  117

    5951                      .dwattr DW$784, DW_AT_bit_offset(0x0a), DW_AT_bit_size(0x02)
    5952                      .dwattr DW$784, DW_AT_data_member_location[DW_OP_plus_uconst 0x0]
    5953                      .dwattr DW$784, DW_AT_accessibility(DW_ACCESS_public)
    5954              DW$785  .dwtag  DW_TAG_member, DW_AT_type(*DW$T$19)
    5955                      .dwattr DW$785, DW_AT_name("rsvd1"), DW_AT_symbol_name("_rsvd1")
    5956                      .dwattr DW$785, DW_AT_bit_offset(0x08), DW_AT_bit_size(0x02)
    5957                      .dwattr DW$785, DW_AT_data_member_location[DW_OP_plus_uconst 0x0]
    5958                      .dwattr DW$785, DW_AT_accessibility(DW_ACCESS_public)
    5959              DW$786  .dwtag  DW_TAG_member, DW_AT_type(*DW$T$19)
    5960                      .dwattr DW$786, DW_AT_name("rsvd2"), DW_AT_symbol_name("_rsvd2")
    5961                      .dwattr DW$786, DW_AT_bit_offset(0x00), DW_AT_bit_size(0x08)
    5962                      .dwattr DW$786, DW_AT_data_member_location[DW_OP_plus_uconst 0x0]
    5963                      .dwattr DW$786, DW_AT_accessibility(DW_ACCESS_public)
    5964              DW$787  .dwtag  DW_TAG_member, DW_AT_type(*DW$T$19)
    5965                      .dwattr DW$787, DW_AT_name("rsvd3"), DW_AT_symbol_name("_rsvd3")
    5966                      .dwattr DW$787, DW_AT_bit_offset(0x00), DW_AT_bit_size(0x10)
    5967                      .dwattr DW$787, DW_AT_data_member_location[DW_OP_plus_uconst 0x1]
    5968                      .dwattr DW$787, DW_AT_accessibility(DW_ACCESS_public)
    5969                      .dwendtag DW$T$102
    5970              
    5971              
    5972              DW$T$104        .dwtag  DW_TAG_structure_type
    5973                      .dwattr DW$T$104, DW_AT_name("GPB2_BITS")
    5974                      .dwattr DW$T$104, DW_AT_byte_size(0x02)
    5975              DW$788  .dwtag  DW_TAG_member, DW_AT_type(*DW$T$19)
    5976                      .dwattr DW$788, DW_AT_name("rsvd1"), DW_AT_symbol_name("_rsvd1")
    5977                      .dwattr DW$788, DW_AT_bit_offset(0x00), DW_AT_bit_size(0x10)
    5978                      .dwattr DW$788, DW_AT_data_member_location[DW_OP_plus_uconst 0x0]
    5979                      .dwattr DW$788, DW_AT_accessibility(DW_ACCESS_public)
    5980              DW$789  .dwtag  DW_TAG_member, DW_AT_type(*DW$T$19)
    5981                      .dwattr DW$789, DW_AT_name("rsvd2"), DW_AT_symbol_name("_rsvd2")
    5982                      .dwattr DW$789, DW_AT_bit_offset(0x00), DW_AT_bit_size(0x10)
    5983                      .dwattr DW$789, DW_AT_data_member_location[DW_OP_plus_uconst 0x1]
    5984                      .dwattr DW$789, DW_AT_accessibility(DW_ACCESS_public)
    5985                      .dwendtag DW$T$104
    5986              
    5987              
    5988              DW$T$106        .dwtag  DW_TAG_structure_type
    5989                      .dwattr DW$T$106, DW_AT_name("GPBDAT_BITS")
    5990                      .dwattr DW$T$106, DW_AT_byte_size(0x02)
    5991              DW$790  .dwtag  DW_TAG_member, DW_AT_type(*DW$T$19)
    5992                      .dwattr DW$790, DW_AT_name("GPIO32"), DW_AT_symbol_name("_GPIO32")
    5993                      .dwattr DW$790, DW_AT_bit_offset(0x0f), DW_AT_bit_size(0x01)
    5994                      .dwattr DW$790, DW_AT_data_member_location[DW_OP_plus_uconst 0x0]
    5995                      .dwattr DW$790, DW_AT_accessibility(DW_ACCESS_public)
    5996              DW$791  .dwtag  DW_TAG_member, DW_AT_type(*DW$T$19)
    5997                      .dwattr DW$791, DW_AT_name("GPIO33"), DW_AT_symbol_name("_GPIO33")
    5998                      .dwattr DW$791, DW_AT_bit_offset(0x0e), DW_AT_bit_size(0x01)
    5999                      .dwattr DW$791, DW_AT_data_member_location[DW_OP_plus_uconst 0x0]
    6000                      .dwattr DW$791, DW_AT_accessibility(DW_ACCESS_public)
    6001              DW$792  .dwtag  DW_TAG_member, DW_AT_type(*DW$T$19)
    6002                      .dwattr DW$792, DW_AT_name("GPIO34"), DW_AT_symbol_name("_GPIO34")
    6003                      .dwattr DW$792, DW_AT_bit_offset(0x0d), DW_AT_bit_size(0x01)
    6004                      .dwattr DW$792, DW_AT_data_member_location[DW_OP_plus_uconst 0x0]
    6005                      .dwattr DW$792, DW_AT_accessibility(DW_ACCESS_public)
TMS320C2000 COFF Assembler PC v4.1.0 Mon Dec 21 14:54:55 2009

Tools Copyright (c) 1996-2005 Texas Instruments Incorporated
C:\DOCUME~1\ADMINI~1\LOCALS~1\Temp\TI9922                            PAGE  118

    6006              DW$793  .dwtag  DW_TAG_member, DW_AT_type(*DW$T$19)
    6007                      .dwattr DW$793, DW_AT_name("rsvd1"), DW_AT_symbol_name("_rsvd1")
    6008                      .dwattr DW$793, DW_AT_bit_offset(0x0c), DW_AT_bit_size(0x01)
    6009                      .dwattr DW$793, DW_AT_data_member_location[DW_OP_plus_uconst 0x0]
    6010                      .dwattr DW$793, DW_AT_accessibility(DW_ACCESS_public)
    6011              DW$794  .dwtag  DW_TAG_member, DW_AT_type(*DW$T$19)
    6012                      .dwattr DW$794, DW_AT_name("rsvd2"), DW_AT_symbol_name("_rsvd2")
    6013                      .dwattr DW$794, DW_AT_bit_offset(0x00), DW_AT_bit_size(0x0c)
    6014                      .dwattr DW$794, DW_AT_data_member_location[DW_OP_plus_uconst 0x0]
    6015                      .dwattr DW$794, DW_AT_accessibility(DW_ACCESS_public)
    6016              DW$795  .dwtag  DW_TAG_member, DW_AT_type(*DW$T$19)
    6017                      .dwattr DW$795, DW_AT_name("rsvd3"), DW_AT_symbol_name("_rsvd3")
    6018                      .dwattr DW$795, DW_AT_bit_offset(0x00), DW_AT_bit_size(0x10)
    6019                      .dwattr DW$795, DW_AT_data_member_location[DW_OP_plus_uconst 0x1]
    6020                      .dwattr DW$795, DW_AT_accessibility(DW_ACCESS_public)
    6021                      .dwendtag DW$T$106
    6022              
    6023              
    6024              DW$T$112        .dwtag  DW_TAG_structure_type
    6025                      .dwattr DW$T$112, DW_AT_name("PIECTRL_BITS")
    6026                      .dwattr DW$T$112, DW_AT_byte_size(0x01)
    6027              DW$796  .dwtag  DW_TAG_member, DW_AT_type(*DW$T$19)
    6028                      .dwattr DW$796, DW_AT_name("ENPIE"), DW_AT_symbol_name("_ENPIE")
    6029                      .dwattr DW$796, DW_AT_bit_offset(0x0f), DW_AT_bit_size(0x01)
    6030                      .dwattr DW$796, DW_AT_data_member_location[DW_OP_plus_uconst 0x0]
    6031                      .dwattr DW$796, DW_AT_accessibility(DW_ACCESS_public)
    6032              DW$797  .dwtag  DW_TAG_member, DW_AT_type(*DW$T$19)
    6033                      .dwattr DW$797, DW_AT_name("PIEVECT"), DW_AT_symbol_name("_PIEVECT")
    6034                      .dwattr DW$797, DW_AT_bit_offset(0x00), DW_AT_bit_size(0x0f)
    6035                      .dwattr DW$797, DW_AT_data_member_location[DW_OP_plus_uconst 0x0]
    6036                      .dwattr DW$797, DW_AT_accessibility(DW_ACCESS_public)
    6037                      .dwendtag DW$T$112
    6038              
    6039              
    6040              DW$T$114        .dwtag  DW_TAG_structure_type
    6041                      .dwattr DW$T$114, DW_AT_name("PIEACK_BITS")
    6042                      .dwattr DW$T$114, DW_AT_byte_size(0x01)
    6043              DW$798  .dwtag  DW_TAG_member, DW_AT_type(*DW$T$19)
    6044                      .dwattr DW$798, DW_AT_name("ACK1"), DW_AT_symbol_name("_ACK1")
    6045                      .dwattr DW$798, DW_AT_bit_offset(0x0f), DW_AT_bit_size(0x01)
    6046                      .dwattr DW$798, DW_AT_data_member_location[DW_OP_plus_uconst 0x0]
    6047                      .dwattr DW$798, DW_AT_accessibility(DW_ACCESS_public)
    6048              DW$799  .dwtag  DW_TAG_member, DW_AT_type(*DW$T$19)
    6049                      .dwattr DW$799, DW_AT_name("ACK2"), DW_AT_symbol_name("_ACK2")
    6050                      .dwattr DW$799, DW_AT_bit_offset(0x0e), DW_AT_bit_size(0x01)
    6051                      .dwattr DW$799, DW_AT_data_member_location[DW_OP_plus_uconst 0x0]
    6052                      .dwattr DW$799, DW_AT_accessibility(DW_ACCESS_public)
    6053              DW$800  .dwtag  DW_TAG_member, DW_AT_type(*DW$T$19)
    6054                      .dwattr DW$800, DW_AT_name("ACK3"), DW_AT_symbol_name("_ACK3")
    6055                      .dwattr DW$800, DW_AT_bit_offset(0x0d), DW_AT_bit_size(0x01)
    6056                      .dwattr DW$800, DW_AT_data_member_location[DW_OP_plus_uconst 0x0]
    6057                      .dwattr DW$800, DW_AT_accessibility(DW_ACCESS_public)
    6058              DW$801  .dwtag  DW_TAG_member, DW_AT_type(*DW$T$19)
    6059                      .dwattr DW$801, DW_AT_name("ACK4"), DW_AT_symbol_name("_ACK4")
    6060                      .dwattr DW$801, DW_AT_bit_offset(0x0c), DW_AT_bit_size(0x01)
TMS320C2000 COFF Assembler PC v4.1.0 Mon Dec 21 14:54:55 2009

Tools Copyright (c) 1996-2005 Texas Instruments Incorporated
C:\DOCUME~1\ADMINI~1\LOCALS~1\Temp\TI9922                            PAGE  119

    6061                      .dwattr DW$801, DW_AT_data_member_location[DW_OP_plus_uconst 0x0]
    6062                      .dwattr DW$801, DW_AT_accessibility(DW_ACCESS_public)
    6063              DW$802  .dwtag  DW_TAG_member, DW_AT_type(*DW$T$19)
    6064                      .dwattr DW$802, DW_AT_name("ACK5"), DW_AT_symbol_name("_ACK5")
    6065                      .dwattr DW$802, DW_AT_bit_offset(0x0b), DW_AT_bit_size(0x01)
    6066                      .dwattr DW$802, DW_AT_data_member_location[DW_OP_plus_uconst 0x0]
    6067                      .dwattr DW$802, DW_AT_accessibility(DW_ACCESS_public)
    6068              DW$803  .dwtag  DW_TAG_member, DW_AT_type(*DW$T$19)
    6069                      .dwattr DW$803, DW_AT_name("ACK6"), DW_AT_symbol_name("_ACK6")
    6070                      .dwattr DW$803, DW_AT_bit_offset(0x0a), DW_AT_bit_size(0x01)
    6071                      .dwattr DW$803, DW_AT_data_member_location[DW_OP_plus_uconst 0x0]
    6072                      .dwattr DW$803, DW_AT_accessibility(DW_ACCESS_public)
    6073              DW$804  .dwtag  DW_TAG_member, DW_AT_type(*DW$T$19)
    6074                      .dwattr DW$804, DW_AT_name("ACK7"), DW_AT_symbol_name("_ACK7")
    6075                      .dwattr DW$804, DW_AT_bit_offset(0x09), DW_AT_bit_size(0x01)
    6076                      .dwattr DW$804, DW_AT_data_member_location[DW_OP_plus_uconst 0x0]
    6077                      .dwattr DW$804, DW_AT_accessibility(DW_ACCESS_public)
    6078              DW$805  .dwtag  DW_TAG_member, DW_AT_type(*DW$T$19)
    6079                      .dwattr DW$805, DW_AT_name("ACK8"), DW_AT_symbol_name("_ACK8")
    6080                      .dwattr DW$805, DW_AT_bit_offset(0x08), DW_AT_bit_size(0x01)
    6081                      .dwattr DW$805, DW_AT_data_member_location[DW_OP_plus_uconst 0x0]
    6082                      .dwattr DW$805, DW_AT_accessibility(DW_ACCESS_public)
    6083              DW$806  .dwtag  DW_TAG_member, DW_AT_type(*DW$T$19)
    6084                      .dwattr DW$806, DW_AT_name("ACK9"), DW_AT_symbol_name("_ACK9")
    6085                      .dwattr DW$806, DW_AT_bit_offset(0x07), DW_AT_bit_size(0x01)
    6086                      .dwattr DW$806, DW_AT_data_member_location[DW_OP_plus_uconst 0x0]
    6087                      .dwattr DW$806, DW_AT_accessibility(DW_ACCESS_public)
    6088              DW$807  .dwtag  DW_TAG_member, DW_AT_type(*DW$T$19)
    6089                      .dwattr DW$807, DW_AT_name("ACK10"), DW_AT_symbol_name("_ACK10")
    6090                      .dwattr DW$807, DW_AT_bit_offset(0x06), DW_AT_bit_size(0x01)
    6091                      .dwattr DW$807, DW_AT_data_member_location[DW_OP_plus_uconst 0x0]
    6092                      .dwattr DW$807, DW_AT_accessibility(DW_ACCESS_public)
    6093              DW$808  .dwtag  DW_TAG_member, DW_AT_type(*DW$T$19)
    6094                      .dwattr DW$808, DW_AT_name("ACK11"), DW_AT_symbol_name("_ACK11")
    6095                      .dwattr DW$808, DW_AT_bit_offset(0x05), DW_AT_bit_size(0x01)
    6096                      .dwattr DW$808, DW_AT_data_member_location[DW_OP_plus_uconst 0x0]
    6097                      .dwattr DW$808, DW_AT_accessibility(DW_ACCESS_public)
    6098              DW$809  .dwtag  DW_TAG_member, DW_AT_type(*DW$T$19)
    6099                      .dwattr DW$809, DW_AT_name("ACK12"), DW_AT_symbol_name("_ACK12")
    6100                      .dwattr DW$809, DW_AT_bit_offset(0x04), DW_AT_bit_size(0x01)
    6101                      .dwattr DW$809, DW_AT_data_member_location[DW_OP_plus_uconst 0x0]
    6102                      .dwattr DW$809, DW_AT_accessibility(DW_ACCESS_public)
    6103              DW$810  .dwtag  DW_TAG_member, DW_AT_type(*DW$T$19)
    6104                      .dwattr DW$810, DW_AT_name("rsvd"), DW_AT_symbol_name("_rsvd")
    6105                      .dwattr DW$810, DW_AT_bit_offset(0x00), DW_AT_bit_size(0x04)
    6106                      .dwattr DW$810, DW_AT_data_member_location[DW_OP_plus_uconst 0x0]
    6107                      .dwattr DW$810, DW_AT_accessibility(DW_ACCESS_public)
    6108                      .dwendtag DW$T$114
    6109              
    6110              
    6111              DW$T$116        .dwtag  DW_TAG_structure_type
    6112                      .dwattr DW$T$116, DW_AT_name("PIEIER_BITS")
    6113                      .dwattr DW$T$116, DW_AT_byte_size(0x01)
    6114              DW$811  .dwtag  DW_TAG_member, DW_AT_type(*DW$T$19)
    6115                      .dwattr DW$811, DW_AT_name("INTx1"), DW_AT_symbol_name("_INTx1")
TMS320C2000 COFF Assembler PC v4.1.0 Mon Dec 21 14:54:55 2009

Tools Copyright (c) 1996-2005 Texas Instruments Incorporated
C:\DOCUME~1\ADMINI~1\LOCALS~1\Temp\TI9922                            PAGE  120

    6116                      .dwattr DW$811, DW_AT_bit_offset(0x0f), DW_AT_bit_size(0x01)
    6117                      .dwattr DW$811, DW_AT_data_member_location[DW_OP_plus_uconst 0x0]
    6118                      .dwattr DW$811, DW_AT_accessibility(DW_ACCESS_public)
    6119              DW$812  .dwtag  DW_TAG_member, DW_AT_type(*DW$T$19)
    6120                      .dwattr DW$812, DW_AT_name("INTx2"), DW_AT_symbol_name("_INTx2")
    6121                      .dwattr DW$812, DW_AT_bit_offset(0x0e), DW_AT_bit_size(0x01)
    6122                      .dwattr DW$812, DW_AT_data_member_location[DW_OP_plus_uconst 0x0]
    6123                      .dwattr DW$812, DW_AT_accessibility(DW_ACCESS_public)
    6124              DW$813  .dwtag  DW_TAG_member, DW_AT_type(*DW$T$19)
    6125                      .dwattr DW$813, DW_AT_name("INTx3"), DW_AT_symbol_name("_INTx3")
    6126                      .dwattr DW$813, DW_AT_bit_offset(0x0d), DW_AT_bit_size(0x01)
    6127                      .dwattr DW$813, DW_AT_data_member_location[DW_OP_plus_uconst 0x0]
    6128                      .dwattr DW$813, DW_AT_accessibility(DW_ACCESS_public)
    6129              DW$814  .dwtag  DW_TAG_member, DW_AT_type(*DW$T$19)
    6130                      .dwattr DW$814, DW_AT_name("INTx4"), DW_AT_symbol_name("_INTx4")
    6131                      .dwattr DW$814, DW_AT_bit_offset(0x0c), DW_AT_bit_size(0x01)
    6132                      .dwattr DW$814, DW_AT_data_member_location[DW_OP_plus_uconst 0x0]
    6133                      .dwattr DW$814, DW_AT_accessibility(DW_ACCESS_public)
    6134              DW$815  .dwtag  DW_TAG_member, DW_AT_type(*DW$T$19)
    6135                      .dwattr DW$815, DW_AT_name("INTx5"), DW_AT_symbol_name("_INTx5")
    6136                      .dwattr DW$815, DW_AT_bit_offset(0x0b), DW_AT_bit_size(0x01)
    6137                      .dwattr DW$815, DW_AT_data_member_location[DW_OP_plus_uconst 0x0]
    6138                      .dwattr DW$815, DW_AT_accessibility(DW_ACCESS_public)
    6139              DW$816  .dwtag  DW_TAG_member, DW_AT_type(*DW$T$19)
    6140                      .dwattr DW$816, DW_AT_name("INTx6"), DW_AT_symbol_name("_INTx6")
    6141                      .dwattr DW$816, DW_AT_bit_offset(0x0a), DW_AT_bit_size(0x01)
    6142                      .dwattr DW$816, DW_AT_data_member_location[DW_OP_plus_uconst 0x0]
    6143                      .dwattr DW$816, DW_AT_accessibility(DW_ACCESS_public)
    6144              DW$817  .dwtag  DW_TAG_member, DW_AT_type(*DW$T$19)
    6145                      .dwattr DW$817, DW_AT_name("INTx7"), DW_AT_symbol_name("_INTx7")
    6146                      .dwattr DW$817, DW_AT_bit_offset(0x09), DW_AT_bit_size(0x01)
    6147                      .dwattr DW$817, DW_AT_data_member_location[DW_OP_plus_uconst 0x0]
    6148                      .dwattr DW$817, DW_AT_accessibility(DW_ACCESS_public)
    6149              DW$818  .dwtag  DW_TAG_member, DW_AT_type(*DW$T$19)
    6150                      .dwattr DW$818, DW_AT_name("INTx8"), DW_AT_symbol_name("_INTx8")
    6151                      .dwattr DW$818, DW_AT_bit_offset(0x08), DW_AT_bit_size(0x01)
    6152                      .dwattr DW$818, DW_AT_data_member_location[DW_OP_plus_uconst 0x0]
    6153                      .dwattr DW$818, DW_AT_accessibility(DW_ACCESS_public)
    6154              DW$819  .dwtag  DW_TAG_member, DW_AT_type(*DW$T$19)
    6155                      .dwattr DW$819, DW_AT_name("rsvd"), DW_AT_symbol_name("_rsvd")
    6156                      .dwattr DW$819, DW_AT_bit_offset(0x00), DW_AT_bit_size(0x08)
    6157                      .dwattr DW$819, DW_AT_data_member_location[DW_OP_plus_uconst 0x0]
    6158                      .dwattr DW$819, DW_AT_accessibility(DW_ACCESS_public)
    6159                      .dwendtag DW$T$116
    6160              
    6161              
    6162              DW$T$118        .dwtag  DW_TAG_structure_type
    6163                      .dwattr DW$T$118, DW_AT_name("PIEIFR_BITS")
    6164                      .dwattr DW$T$118, DW_AT_byte_size(0x01)
    6165              DW$820  .dwtag  DW_TAG_member, DW_AT_type(*DW$T$19)
    6166                      .dwattr DW$820, DW_AT_name("INTx1"), DW_AT_symbol_name("_INTx1")
    6167                      .dwattr DW$820, DW_AT_bit_offset(0x0f), DW_AT_bit_size(0x01)
    6168                      .dwattr DW$820, DW_AT_data_member_location[DW_OP_plus_uconst 0x0]
    6169                      .dwattr DW$820, DW_AT_accessibility(DW_ACCESS_public)
    6170              DW$821  .dwtag  DW_TAG_member, DW_AT_type(*DW$T$19)
TMS320C2000 COFF Assembler PC v4.1.0 Mon Dec 21 14:54:55 2009

Tools Copyright (c) 1996-2005 Texas Instruments Incorporated
C:\DOCUME~1\ADMINI~1\LOCALS~1\Temp\TI9922                            PAGE  121

    6171                      .dwattr DW$821, DW_AT_name("INTx2"), DW_AT_symbol_name("_INTx2")
    6172                      .dwattr DW$821, DW_AT_bit_offset(0x0e), DW_AT_bit_size(0x01)
    6173                      .dwattr DW$821, DW_AT_data_member_location[DW_OP_plus_uconst 0x0]
    6174                      .dwattr DW$821, DW_AT_accessibility(DW_ACCESS_public)
    6175              DW$822  .dwtag  DW_TAG_member, DW_AT_type(*DW$T$19)
    6176                      .dwattr DW$822, DW_AT_name("INTx3"), DW_AT_symbol_name("_INTx3")
    6177                      .dwattr DW$822, DW_AT_bit_offset(0x0d), DW_AT_bit_size(0x01)
    6178                      .dwattr DW$822, DW_AT_data_member_location[DW_OP_plus_uconst 0x0]
    6179                      .dwattr DW$822, DW_AT_accessibility(DW_ACCESS_public)
    6180              DW$823  .dwtag  DW_TAG_member, DW_AT_type(*DW$T$19)
    6181                      .dwattr DW$823, DW_AT_name("INTx4"), DW_AT_symbol_name("_INTx4")
    6182                      .dwattr DW$823, DW_AT_bit_offset(0x0c), DW_AT_bit_size(0x01)
    6183                      .dwattr DW$823, DW_AT_data_member_location[DW_OP_plus_uconst 0x0]
    6184                      .dwattr DW$823, DW_AT_accessibility(DW_ACCESS_public)
    6185              DW$824  .dwtag  DW_TAG_member, DW_AT_type(*DW$T$19)
    6186                      .dwattr DW$824, DW_AT_name("INTx5"), DW_AT_symbol_name("_INTx5")
    6187                      .dwattr DW$824, DW_AT_bit_offset(0x0b), DW_AT_bit_size(0x01)
    6188                      .dwattr DW$824, DW_AT_data_member_location[DW_OP_plus_uconst 0x0]
    6189                      .dwattr DW$824, DW_AT_accessibility(DW_ACCESS_public)
    6190              DW$825  .dwtag  DW_TAG_member, DW_AT_type(*DW$T$19)
    6191                      .dwattr DW$825, DW_AT_name("INTx6"), DW_AT_symbol_name("_INTx6")
    6192                      .dwattr DW$825, DW_AT_bit_offset(0x0a), DW_AT_bit_size(0x01)
    6193                      .dwattr DW$825, DW_AT_data_member_location[DW_OP_plus_uconst 0x0]
    6194                      .dwattr DW$825, DW_AT_accessibility(DW_ACCESS_public)
    6195              DW$826  .dwtag  DW_TAG_member, DW_AT_type(*DW$T$19)
    6196                      .dwattr DW$826, DW_AT_name("INTx7"), DW_AT_symbol_name("_INTx7")
    6197                      .dwattr DW$826, DW_AT_bit_offset(0x09), DW_AT_bit_size(0x01)
    6198                      .dwattr DW$826, DW_AT_data_member_location[DW_OP_plus_uconst 0x0]
    6199                      .dwattr DW$826, DW_AT_accessibility(DW_ACCESS_public)
    6200              DW$827  .dwtag  DW_TAG_member, DW_AT_type(*DW$T$19)
    6201                      .dwattr DW$827, DW_AT_name("INTx8"), DW_AT_symbol_name("_INTx8")
    6202                      .dwattr DW$827, DW_AT_bit_offset(0x08), DW_AT_bit_size(0x01)
    6203                      .dwattr DW$827, DW_AT_data_member_location[DW_OP_plus_uconst 0x0]
    6204                      .dwattr DW$827, DW_AT_accessibility(DW_ACCESS_public)
    6205              DW$828  .dwtag  DW_TAG_member, DW_AT_type(*DW$T$19)
    6206                      .dwattr DW$828, DW_AT_name("rsvd"), DW_AT_symbol_name("_rsvd")
    6207                      .dwattr DW$828, DW_AT_bit_offset(0x00), DW_AT_bit_size(0x08)
    6208                      .dwattr DW$828, DW_AT_data_member_location[DW_OP_plus_uconst 0x0]
    6209                      .dwattr DW$828, DW_AT_accessibility(DW_ACCESS_public)
    6210                      .dwendtag DW$T$118
    6211              
    6212              
    6213              DW$T$125        .dwtag  DW_TAG_structure_type
    6214                      .dwattr DW$T$125, DW_AT_name("XCLK_BITS")
    6215                      .dwattr DW$T$125, DW_AT_byte_size(0x01)
    6216              DW$829  .dwtag  DW_TAG_member, DW_AT_type(*DW$T$19)
    6217                      .dwattr DW$829, DW_AT_name("XCLKOUTDIV"), DW_AT_symbol_name("_XCLKOUTDIV")
    6218                      .dwattr DW$829, DW_AT_bit_offset(0x0e), DW_AT_bit_size(0x02)
    6219                      .dwattr DW$829, DW_AT_data_member_location[DW_OP_plus_uconst 0x0]
    6220                      .dwattr DW$829, DW_AT_accessibility(DW_ACCESS_public)
    6221              DW$830  .dwtag  DW_TAG_member, DW_AT_type(*DW$T$19)
    6222                      .dwattr DW$830, DW_AT_name("XCLKOUTDAT"), DW_AT_symbol_name("_XCLKOUTDAT")
    6223                      .dwattr DW$830, DW_AT_bit_offset(0x0d), DW_AT_bit_size(0x01)
    6224                      .dwattr DW$830, DW_AT_data_member_location[DW_OP_plus_uconst 0x0]
    6225                      .dwattr DW$830, DW_AT_accessibility(DW_ACCESS_public)
TMS320C2000 COFF Assembler PC v4.1.0 Mon Dec 21 14:54:55 2009

Tools Copyright (c) 1996-2005 Texas Instruments Incorporated
C:\DOCUME~1\ADMINI~1\LOCALS~1\Temp\TI9922                            PAGE  122

    6226              DW$831  .dwtag  DW_TAG_member, DW_AT_type(*DW$T$19)
    6227                      .dwattr DW$831, DW_AT_name("X1DAT"), DW_AT_symbol_name("_X1DAT")
    6228                      .dwattr DW$831, DW_AT_bit_offset(0x0c), DW_AT_bit_size(0x01)
    6229                      .dwattr DW$831, DW_AT_data_member_location[DW_OP_plus_uconst 0x0]
    6230                      .dwattr DW$831, DW_AT_accessibility(DW_ACCESS_public)
    6231              DW$832  .dwtag  DW_TAG_member, DW_AT_type(*DW$T$19)
    6232                      .dwattr DW$832, DW_AT_name("XCLKINDAT"), DW_AT_symbol_name("_XCLKINDAT")
    6233                      .dwattr DW$832, DW_AT_bit_offset(0x0b), DW_AT_bit_size(0x01)
    6234                      .dwattr DW$832, DW_AT_data_member_location[DW_OP_plus_uconst 0x0]
    6235                      .dwattr DW$832, DW_AT_accessibility(DW_ACCESS_public)
    6236              DW$833  .dwtag  DW_TAG_member, DW_AT_type(*DW$T$19)
    6237                      .dwattr DW$833, DW_AT_name("rsvd1"), DW_AT_symbol_name("_rsvd1")
    6238                      .dwattr DW$833, DW_AT_bit_offset(0x08), DW_AT_bit_size(0x03)
    6239                      .dwattr DW$833, DW_AT_data_member_location[DW_OP_plus_uconst 0x0]
    6240                      .dwattr DW$833, DW_AT_accessibility(DW_ACCESS_public)
    6241              DW$834  .dwtag  DW_TAG_member, DW_AT_type(*DW$T$19)
    6242                      .dwattr DW$834, DW_AT_name("X1CNT"), DW_AT_symbol_name("_X1CNT")
    6243                      .dwattr DW$834, DW_AT_bit_offset(0x04), DW_AT_bit_size(0x04)
    6244                      .dwattr DW$834, DW_AT_data_member_location[DW_OP_plus_uconst 0x0]
    6245                      .dwattr DW$834, DW_AT_accessibility(DW_ACCESS_public)
    6246              DW$835  .dwtag  DW_TAG_member, DW_AT_type(*DW$T$19)
    6247                      .dwattr DW$835, DW_AT_name("XCLKINCNT"), DW_AT_symbol_name("_XCLKINCNT")
    6248                      .dwattr DW$835, DW_AT_bit_offset(0x00), DW_AT_bit_size(0x04)
    6249                      .dwattr DW$835, DW_AT_data_member_location[DW_OP_plus_uconst 0x0]
    6250                      .dwattr DW$835, DW_AT_accessibility(DW_ACCESS_public)
    6251                      .dwendtag DW$T$125
    6252              
    6253              
    6254              DW$T$127        .dwtag  DW_TAG_structure_type
    6255                      .dwattr DW$T$127, DW_AT_name("PLLSTS_BITS")
    6256                      .dwattr DW$T$127, DW_AT_byte_size(0x01)
    6257              DW$836  .dwtag  DW_TAG_member, DW_AT_type(*DW$T$19)
    6258                      .dwattr DW$836, DW_AT_name("PLLLOCKS"), DW_AT_symbol_name("_PLLLOCKS")
    6259                      .dwattr DW$836, DW_AT_bit_offset(0x0f), DW_AT_bit_size(0x01)
    6260                      .dwattr DW$836, DW_AT_data_member_location[DW_OP_plus_uconst 0x0]
    6261                      .dwattr DW$836, DW_AT_accessibility(DW_ACCESS_public)
    6262              DW$837  .dwtag  DW_TAG_member, DW_AT_type(*DW$T$19)
    6263                      .dwattr DW$837, DW_AT_name("rsvd1"), DW_AT_symbol_name("_rsvd1")
    6264                      .dwattr DW$837, DW_AT_bit_offset(0x0e), DW_AT_bit_size(0x01)
    6265                      .dwattr DW$837, DW_AT_data_member_location[DW_OP_plus_uconst 0x0]
    6266                      .dwattr DW$837, DW_AT_accessibility(DW_ACCESS_public)
    6267              DW$838  .dwtag  DW_TAG_member, DW_AT_type(*DW$T$19)
    6268                      .dwattr DW$838, DW_AT_name("PLLOFF"), DW_AT_symbol_name("_PLLOFF")
    6269                      .dwattr DW$838, DW_AT_bit_offset(0x0d), DW_AT_bit_size(0x01)
    6270                      .dwattr DW$838, DW_AT_data_member_location[DW_OP_plus_uconst 0x0]
    6271                      .dwattr DW$838, DW_AT_accessibility(DW_ACCESS_public)
    6272              DW$839  .dwtag  DW_TAG_member, DW_AT_type(*DW$T$19)
    6273                      .dwattr DW$839, DW_AT_name("MCLKSTS"), DW_AT_symbol_name("_MCLKSTS")
    6274                      .dwattr DW$839, DW_AT_bit_offset(0x0c), DW_AT_bit_size(0x01)
    6275                      .dwattr DW$839, DW_AT_data_member_location[DW_OP_plus_uconst 0x0]
    6276                      .dwattr DW$839, DW_AT_accessibility(DW_ACCESS_public)
    6277              DW$840  .dwtag  DW_TAG_member, DW_AT_type(*DW$T$19)
    6278                      .dwattr DW$840, DW_AT_name("MCLKCLR"), DW_AT_symbol_name("_MCLKCLR")
    6279                      .dwattr DW$840, DW_AT_bit_offset(0x0b), DW_AT_bit_size(0x01)
    6280                      .dwattr DW$840, DW_AT_data_member_location[DW_OP_plus_uconst 0x0]
TMS320C2000 COFF Assembler PC v4.1.0 Mon Dec 21 14:54:55 2009

Tools Copyright (c) 1996-2005 Texas Instruments Incorporated
C:\DOCUME~1\ADMINI~1\LOCALS~1\Temp\TI9922                            PAGE  123

    6281                      .dwattr DW$840, DW_AT_accessibility(DW_ACCESS_public)
    6282              DW$841  .dwtag  DW_TAG_member, DW_AT_type(*DW$T$19)
    6283                      .dwattr DW$841, DW_AT_name("OSCOFF"), DW_AT_symbol_name("_OSCOFF")
    6284                      .dwattr DW$841, DW_AT_bit_offset(0x0a), DW_AT_bit_size(0x01)
    6285                      .dwattr DW$841, DW_AT_data_member_location[DW_OP_plus_uconst 0x0]
    6286                      .dwattr DW$841, DW_AT_accessibility(DW_ACCESS_public)
    6287              DW$842  .dwtag  DW_TAG_member, DW_AT_type(*DW$T$19)
    6288                      .dwattr DW$842, DW_AT_name("MCLKOFF"), DW_AT_symbol_name("_MCLKOFF")
    6289                      .dwattr DW$842, DW_AT_bit_offset(0x09), DW_AT_bit_size(0x01)
    6290                      .dwattr DW$842, DW_AT_data_member_location[DW_OP_plus_uconst 0x0]
    6291                      .dwattr DW$842, DW_AT_accessibility(DW_ACCESS_public)
    6292              DW$843  .dwtag  DW_TAG_member, DW_AT_type(*DW$T$19)
    6293                      .dwattr DW$843, DW_AT_name("rsvd2"), DW_AT_symbol_name("_rsvd2")
    6294                      .dwattr DW$843, DW_AT_bit_offset(0x00), DW_AT_bit_size(0x09)
    6295                      .dwattr DW$843, DW_AT_data_member_location[DW_OP_plus_uconst 0x0]
    6296                      .dwattr DW$843, DW_AT_accessibility(DW_ACCESS_public)
    6297                      .dwendtag DW$T$127
    6298              
    6299              
    6300              DW$T$129        .dwtag  DW_TAG_structure_type
    6301                      .dwattr DW$T$129, DW_AT_name("HISPCP_BITS")
    6302                      .dwattr DW$T$129, DW_AT_byte_size(0x01)
    6303              DW$844  .dwtag  DW_TAG_member, DW_AT_type(*DW$T$19)
    6304                      .dwattr DW$844, DW_AT_name("HSPCLK"), DW_AT_symbol_name("_HSPCLK")
    6305                      .dwattr DW$844, DW_AT_bit_offset(0x0d), DW_AT_bit_size(0x03)
    6306                      .dwattr DW$844, DW_AT_data_member_location[DW_OP_plus_uconst 0x0]
    6307                      .dwattr DW$844, DW_AT_accessibility(DW_ACCESS_public)
    6308              DW$845  .dwtag  DW_TAG_member, DW_AT_type(*DW$T$19)
    6309                      .dwattr DW$845, DW_AT_name("rsvd1"), DW_AT_symbol_name("_rsvd1")
    6310                      .dwattr DW$845, DW_AT_bit_offset(0x00), DW_AT_bit_size(0x0d)
    6311                      .dwattr DW$845, DW_AT_data_member_location[DW_OP_plus_uconst 0x0]
    6312                      .dwattr DW$845, DW_AT_accessibility(DW_ACCESS_public)
    6313                      .dwendtag DW$T$129
    6314              
    6315              
    6316              DW$T$131        .dwtag  DW_TAG_structure_type
    6317                      .dwattr DW$T$131, DW_AT_name("LOSPCP_BITS")
    6318                      .dwattr DW$T$131, DW_AT_byte_size(0x01)
    6319              DW$846  .dwtag  DW_TAG_member, DW_AT_type(*DW$T$19)
    6320                      .dwattr DW$846, DW_AT_name("LSPCLK"), DW_AT_symbol_name("_LSPCLK")
    6321                      .dwattr DW$846, DW_AT_bit_offset(0x0d), DW_AT_bit_size(0x03)
    6322                      .dwattr DW$846, DW_AT_data_member_location[DW_OP_plus_uconst 0x0]
    6323                      .dwattr DW$846, DW_AT_accessibility(DW_ACCESS_public)
    6324              DW$847  .dwtag  DW_TAG_member, DW_AT_type(*DW$T$19)
    6325                      .dwattr DW$847, DW_AT_name("rsvd1"), DW_AT_symbol_name("_rsvd1")
    6326                      .dwattr DW$847, DW_AT_bit_offset(0x00), DW_AT_bit_size(0x0d)
    6327                      .dwattr DW$847, DW_AT_data_member_location[DW_OP_plus_uconst 0x0]
    6328                      .dwattr DW$847, DW_AT_accessibility(DW_ACCESS_public)
    6329                      .dwendtag DW$T$131
    6330              
    6331              
    6332              DW$T$133        .dwtag  DW_TAG_structure_type
    6333                      .dwattr DW$T$133, DW_AT_name("PCLKCR0_BITS")
    6334                      .dwattr DW$T$133, DW_AT_byte_size(0x01)
    6335              DW$848  .dwtag  DW_TAG_member, DW_AT_type(*DW$T$19)
TMS320C2000 COFF Assembler PC v4.1.0 Mon Dec 21 14:54:55 2009

Tools Copyright (c) 1996-2005 Texas Instruments Incorporated
C:\DOCUME~1\ADMINI~1\LOCALS~1\Temp\TI9922                            PAGE  124

    6336                      .dwattr DW$848, DW_AT_name("rsvd1"), DW_AT_symbol_name("_rsvd1")
    6337                      .dwattr DW$848, DW_AT_bit_offset(0x0e), DW_AT_bit_size(0x02)
    6338                      .dwattr DW$848, DW_AT_data_member_location[DW_OP_plus_uconst 0x0]
    6339                      .dwattr DW$848, DW_AT_accessibility(DW_ACCESS_public)
    6340              DW$849  .dwtag  DW_TAG_member, DW_AT_type(*DW$T$19)
    6341                      .dwattr DW$849, DW_AT_name("TBCLKSYNC"), DW_AT_symbol_name("_TBCLKSYNC")
    6342                      .dwattr DW$849, DW_AT_bit_offset(0x0d), DW_AT_bit_size(0x01)
    6343                      .dwattr DW$849, DW_AT_data_member_location[DW_OP_plus_uconst 0x0]
    6344                      .dwattr DW$849, DW_AT_accessibility(DW_ACCESS_public)
    6345              DW$850  .dwtag  DW_TAG_member, DW_AT_type(*DW$T$19)
    6346                      .dwattr DW$850, DW_AT_name("ADCENCLK"), DW_AT_symbol_name("_ADCENCLK")
    6347                      .dwattr DW$850, DW_AT_bit_offset(0x0c), DW_AT_bit_size(0x01)
    6348                      .dwattr DW$850, DW_AT_data_member_location[DW_OP_plus_uconst 0x0]
    6349                      .dwattr DW$850, DW_AT_accessibility(DW_ACCESS_public)
    6350              DW$851  .dwtag  DW_TAG_member, DW_AT_type(*DW$T$19)
    6351                      .dwattr DW$851, DW_AT_name("I2CAENCLK"), DW_AT_symbol_name("_I2CAENCLK")
    6352                      .dwattr DW$851, DW_AT_bit_offset(0x0b), DW_AT_bit_size(0x01)
    6353                      .dwattr DW$851, DW_AT_data_member_location[DW_OP_plus_uconst 0x0]
    6354                      .dwattr DW$851, DW_AT_accessibility(DW_ACCESS_public)
    6355              DW$852  .dwtag  DW_TAG_member, DW_AT_type(*DW$T$19)
    6356                      .dwattr DW$852, DW_AT_name("rsvd2"), DW_AT_symbol_name("_rsvd2")
    6357                      .dwattr DW$852, DW_AT_bit_offset(0x0a), DW_AT_bit_size(0x01)
    6358                      .dwattr DW$852, DW_AT_data_member_location[DW_OP_plus_uconst 0x0]
    6359                      .dwattr DW$852, DW_AT_accessibility(DW_ACCESS_public)
    6360              DW$853  .dwtag  DW_TAG_member, DW_AT_type(*DW$T$19)
    6361                      .dwattr DW$853, DW_AT_name("SPICENCLK"), DW_AT_symbol_name("_SPICENCLK")
    6362                      .dwattr DW$853, DW_AT_bit_offset(0x09), DW_AT_bit_size(0x01)
    6363                      .dwattr DW$853, DW_AT_data_member_location[DW_OP_plus_uconst 0x0]
    6364                      .dwattr DW$853, DW_AT_accessibility(DW_ACCESS_public)
    6365              DW$854  .dwtag  DW_TAG_member, DW_AT_type(*DW$T$19)
    6366                      .dwattr DW$854, DW_AT_name("SPIDENCLK"), DW_AT_symbol_name("_SPIDENCLK")
    6367                      .dwattr DW$854, DW_AT_bit_offset(0x08), DW_AT_bit_size(0x01)
    6368                      .dwattr DW$854, DW_AT_data_member_location[DW_OP_plus_uconst 0x0]
    6369                      .dwattr DW$854, DW_AT_accessibility(DW_ACCESS_public)
    6370              DW$855  .dwtag  DW_TAG_member, DW_AT_type(*DW$T$19)
    6371                      .dwattr DW$855, DW_AT_name("SPIAENCLK"), DW_AT_symbol_name("_SPIAENCLK")
    6372                      .dwattr DW$855, DW_AT_bit_offset(0x07), DW_AT_bit_size(0x01)
    6373                      .dwattr DW$855, DW_AT_data_member_location[DW_OP_plus_uconst 0x0]
    6374                      .dwattr DW$855, DW_AT_accessibility(DW_ACCESS_public)
    6375              DW$856  .dwtag  DW_TAG_member, DW_AT_type(*DW$T$19)
    6376                      .dwattr DW$856, DW_AT_name("SPIBENCLK"), DW_AT_symbol_name("_SPIBENCLK")
    6377                      .dwattr DW$856, DW_AT_bit_offset(0x06), DW_AT_bit_size(0x01)
    6378                      .dwattr DW$856, DW_AT_data_member_location[DW_OP_plus_uconst 0x0]
    6379                      .dwattr DW$856, DW_AT_accessibility(DW_ACCESS_public)
    6380              DW$857  .dwtag  DW_TAG_member, DW_AT_type(*DW$T$19)
    6381                      .dwattr DW$857, DW_AT_name("SCIAENCLK"), DW_AT_symbol_name("_SCIAENCLK")
    6382                      .dwattr DW$857, DW_AT_bit_offset(0x05), DW_AT_bit_size(0x01)
    6383                      .dwattr DW$857, DW_AT_data_member_location[DW_OP_plus_uconst 0x0]
    6384                      .dwattr DW$857, DW_AT_accessibility(DW_ACCESS_public)
    6385              DW$858  .dwtag  DW_TAG_member, DW_AT_type(*DW$T$19)
    6386                      .dwattr DW$858, DW_AT_name("SCIBENCLK"), DW_AT_symbol_name("_SCIBENCLK")
    6387                      .dwattr DW$858, DW_AT_bit_offset(0x04), DW_AT_bit_size(0x01)
    6388                      .dwattr DW$858, DW_AT_data_member_location[DW_OP_plus_uconst 0x0]
    6389                      .dwattr DW$858, DW_AT_accessibility(DW_ACCESS_public)
    6390              DW$859  .dwtag  DW_TAG_member, DW_AT_type(*DW$T$19)
TMS320C2000 COFF Assembler PC v4.1.0 Mon Dec 21 14:54:55 2009

Tools Copyright (c) 1996-2005 Texas Instruments Incorporated
C:\DOCUME~1\ADMINI~1\LOCALS~1\Temp\TI9922                            PAGE  125

    6391                      .dwattr DW$859, DW_AT_name("rsvd3"), DW_AT_symbol_name("_rsvd3")
    6392                      .dwattr DW$859, DW_AT_bit_offset(0x02), DW_AT_bit_size(0x02)
    6393                      .dwattr DW$859, DW_AT_data_member_location[DW_OP_plus_uconst 0x0]
    6394                      .dwattr DW$859, DW_AT_accessibility(DW_ACCESS_public)
    6395              DW$860  .dwtag  DW_TAG_member, DW_AT_type(*DW$T$19)
    6396                      .dwattr DW$860, DW_AT_name("ECANAENCLK"), DW_AT_symbol_name("_ECANAENCLK")
    6397                      .dwattr DW$860, DW_AT_bit_offset(0x01), DW_AT_bit_size(0x01)
    6398                      .dwattr DW$860, DW_AT_data_member_location[DW_OP_plus_uconst 0x0]
    6399                      .dwattr DW$860, DW_AT_accessibility(DW_ACCESS_public)
    6400              DW$861  .dwtag  DW_TAG_member, DW_AT_type(*DW$T$19)
    6401                      .dwattr DW$861, DW_AT_name("ECANBENCLK"), DW_AT_symbol_name("_ECANBENCLK")
    6402                      .dwattr DW$861, DW_AT_bit_offset(0x00), DW_AT_bit_size(0x01)
    6403                      .dwattr DW$861, DW_AT_data_member_location[DW_OP_plus_uconst 0x0]
    6404                      .dwattr DW$861, DW_AT_accessibility(DW_ACCESS_public)
    6405                      .dwendtag DW$T$133
    6406              
    6407              
    6408              DW$T$135        .dwtag  DW_TAG_structure_type
    6409                      .dwattr DW$T$135, DW_AT_name("PCLKCR1_BITS")
    6410                      .dwattr DW$T$135, DW_AT_byte_size(0x01)
    6411              DW$862  .dwtag  DW_TAG_member, DW_AT_type(*DW$T$19)
    6412                      .dwattr DW$862, DW_AT_name("EPWM1ENCLK"), DW_AT_symbol_name("_EPWM1ENCLK")
    6413                      .dwattr DW$862, DW_AT_bit_offset(0x0f), DW_AT_bit_size(0x01)
    6414                      .dwattr DW$862, DW_AT_data_member_location[DW_OP_plus_uconst 0x0]
    6415                      .dwattr DW$862, DW_AT_accessibility(DW_ACCESS_public)
    6416              DW$863  .dwtag  DW_TAG_member, DW_AT_type(*DW$T$19)
    6417                      .dwattr DW$863, DW_AT_name("EPWM2ENCLK"), DW_AT_symbol_name("_EPWM2ENCLK")
    6418                      .dwattr DW$863, DW_AT_bit_offset(0x0e), DW_AT_bit_size(0x01)
    6419                      .dwattr DW$863, DW_AT_data_member_location[DW_OP_plus_uconst 0x0]
    6420                      .dwattr DW$863, DW_AT_accessibility(DW_ACCESS_public)
    6421              DW$864  .dwtag  DW_TAG_member, DW_AT_type(*DW$T$19)
    6422                      .dwattr DW$864, DW_AT_name("EPWM3ENCLK"), DW_AT_symbol_name("_EPWM3ENCLK")
    6423                      .dwattr DW$864, DW_AT_bit_offset(0x0d), DW_AT_bit_size(0x01)
    6424                      .dwattr DW$864, DW_AT_data_member_location[DW_OP_plus_uconst 0x0]
    6425                      .dwattr DW$864, DW_AT_accessibility(DW_ACCESS_public)
    6426              DW$865  .dwtag  DW_TAG_member, DW_AT_type(*DW$T$19)
    6427                      .dwattr DW$865, DW_AT_name("EPWM4ENCLK"), DW_AT_symbol_name("_EPWM4ENCLK")
    6428                      .dwattr DW$865, DW_AT_bit_offset(0x0c), DW_AT_bit_size(0x01)
    6429                      .dwattr DW$865, DW_AT_data_member_location[DW_OP_plus_uconst 0x0]
    6430                      .dwattr DW$865, DW_AT_accessibility(DW_ACCESS_public)
    6431              DW$866  .dwtag  DW_TAG_member, DW_AT_type(*DW$T$19)
    6432                      .dwattr DW$866, DW_AT_name("EPWM5ENCLK"), DW_AT_symbol_name("_EPWM5ENCLK")
    6433                      .dwattr DW$866, DW_AT_bit_offset(0x0b), DW_AT_bit_size(0x01)
    6434                      .dwattr DW$866, DW_AT_data_member_location[DW_OP_plus_uconst 0x0]
    6435                      .dwattr DW$866, DW_AT_accessibility(DW_ACCESS_public)
    6436              DW$867  .dwtag  DW_TAG_member, DW_AT_type(*DW$T$19)
    6437                      .dwattr DW$867, DW_AT_name("EPWM6ENCLK"), DW_AT_symbol_name("_EPWM6ENCLK")
    6438                      .dwattr DW$867, DW_AT_bit_offset(0x0a), DW_AT_bit_size(0x01)
    6439                      .dwattr DW$867, DW_AT_data_member_location[DW_OP_plus_uconst 0x0]
    6440                      .dwattr DW$867, DW_AT_accessibility(DW_ACCESS_public)
    6441              DW$868  .dwtag  DW_TAG_member, DW_AT_type(*DW$T$19)
    6442                      .dwattr DW$868, DW_AT_name("rsvd1"), DW_AT_symbol_name("_rsvd1")
    6443                      .dwattr DW$868, DW_AT_bit_offset(0x08), DW_AT_bit_size(0x02)
    6444                      .dwattr DW$868, DW_AT_data_member_location[DW_OP_plus_uconst 0x0]
    6445                      .dwattr DW$868, DW_AT_accessibility(DW_ACCESS_public)
TMS320C2000 COFF Assembler PC v4.1.0 Mon Dec 21 14:54:55 2009

Tools Copyright (c) 1996-2005 Texas Instruments Incorporated
C:\DOCUME~1\ADMINI~1\LOCALS~1\Temp\TI9922                            PAGE  126

    6446              DW$869  .dwtag  DW_TAG_member, DW_AT_type(*DW$T$19)
    6447                      .dwattr DW$869, DW_AT_name("ECAP1ENCLK"), DW_AT_symbol_name("_ECAP1ENCLK")
    6448                      .dwattr DW$869, DW_AT_bit_offset(0x07), DW_AT_bit_size(0x01)
    6449                      .dwattr DW$869, DW_AT_data_member_location[DW_OP_plus_uconst 0x0]
    6450                      .dwattr DW$869, DW_AT_accessibility(DW_ACCESS_public)
    6451              DW$870  .dwtag  DW_TAG_member, DW_AT_type(*DW$T$19)
    6452                      .dwattr DW$870, DW_AT_name("ECAP2ENCLK"), DW_AT_symbol_name("_ECAP2ENCLK")
    6453                      .dwattr DW$870, DW_AT_bit_offset(0x06), DW_AT_bit_size(0x01)
    6454                      .dwattr DW$870, DW_AT_data_member_location[DW_OP_plus_uconst 0x0]
    6455                      .dwattr DW$870, DW_AT_accessibility(DW_ACCESS_public)
    6456              DW$871  .dwtag  DW_TAG_member, DW_AT_type(*DW$T$19)
    6457                      .dwattr DW$871, DW_AT_name("ECAP3ENCLK"), DW_AT_symbol_name("_ECAP3ENCLK")
    6458                      .dwattr DW$871, DW_AT_bit_offset(0x05), DW_AT_bit_size(0x01)
    6459                      .dwattr DW$871, DW_AT_data_member_location[DW_OP_plus_uconst 0x0]
    6460                      .dwattr DW$871, DW_AT_accessibility(DW_ACCESS_public)
    6461              DW$872  .dwtag  DW_TAG_member, DW_AT_type(*DW$T$19)
    6462                      .dwattr DW$872, DW_AT_name("ECAP4ENCLK"), DW_AT_symbol_name("_ECAP4ENCLK")
    6463                      .dwattr DW$872, DW_AT_bit_offset(0x04), DW_AT_bit_size(0x01)
    6464                      .dwattr DW$872, DW_AT_data_member_location[DW_OP_plus_uconst 0x0]
    6465                      .dwattr DW$872, DW_AT_accessibility(DW_ACCESS_public)
    6466              DW$873  .dwtag  DW_TAG_member, DW_AT_type(*DW$T$19)
    6467                      .dwattr DW$873, DW_AT_name("rsvd2"), DW_AT_symbol_name("_rsvd2")
    6468                      .dwattr DW$873, DW_AT_bit_offset(0x02), DW_AT_bit_size(0x02)
    6469                      .dwattr DW$873, DW_AT_data_member_location[DW_OP_plus_uconst 0x0]
    6470                      .dwattr DW$873, DW_AT_accessibility(DW_ACCESS_public)
    6471              DW$874  .dwtag  DW_TAG_member, DW_AT_type(*DW$T$19)
    6472                      .dwattr DW$874, DW_AT_name("EQEP1ENCLK"), DW_AT_symbol_name("_EQEP1ENCLK")
    6473                      .dwattr DW$874, DW_AT_bit_offset(0x01), DW_AT_bit_size(0x01)
    6474                      .dwattr DW$874, DW_AT_data_member_location[DW_OP_plus_uconst 0x0]
    6475                      .dwattr DW$874, DW_AT_accessibility(DW_ACCESS_public)
    6476              DW$875  .dwtag  DW_TAG_member, DW_AT_type(*DW$T$19)
    6477                      .dwattr DW$875, DW_AT_name("EQEP2ENCLK"), DW_AT_symbol_name("_EQEP2ENCLK")
    6478                      .dwattr DW$875, DW_AT_bit_offset(0x00), DW_AT_bit_size(0x01)
    6479                      .dwattr DW$875, DW_AT_data_member_location[DW_OP_plus_uconst 0x0]
    6480                      .dwattr DW$875, DW_AT_accessibility(DW_ACCESS_public)
    6481                      .dwendtag DW$T$135
    6482              
    6483              
    6484              DW$T$137        .dwtag  DW_TAG_structure_type
    6485                      .dwattr DW$T$137, DW_AT_name("LPMCR0_BITS")
    6486                      .dwattr DW$T$137, DW_AT_byte_size(0x01)
    6487              DW$876  .dwtag  DW_TAG_member, DW_AT_type(*DW$T$19)
    6488                      .dwattr DW$876, DW_AT_name("LPM"), DW_AT_symbol_name("_LPM")
    6489                      .dwattr DW$876, DW_AT_bit_offset(0x0e), DW_AT_bit_size(0x02)
    6490                      .dwattr DW$876, DW_AT_data_member_location[DW_OP_plus_uconst 0x0]
    6491                      .dwattr DW$876, DW_AT_accessibility(DW_ACCESS_public)
    6492              DW$877  .dwtag  DW_TAG_member, DW_AT_type(*DW$T$19)
    6493                      .dwattr DW$877, DW_AT_name("QUALSTDBY"), DW_AT_symbol_name("_QUALSTDBY")
    6494                      .dwattr DW$877, DW_AT_bit_offset(0x08), DW_AT_bit_size(0x06)
    6495                      .dwattr DW$877, DW_AT_data_member_location[DW_OP_plus_uconst 0x0]
    6496                      .dwattr DW$877, DW_AT_accessibility(DW_ACCESS_public)
    6497              DW$878  .dwtag  DW_TAG_member, DW_AT_type(*DW$T$19)
    6498                      .dwattr DW$878, DW_AT_name("rsvd1"), DW_AT_symbol_name("_rsvd1")
    6499                      .dwattr DW$878, DW_AT_bit_offset(0x01), DW_AT_bit_size(0x07)
    6500                      .dwattr DW$878, DW_AT_data_member_location[DW_OP_plus_uconst 0x0]
TMS320C2000 COFF Assembler PC v4.1.0 Mon Dec 21 14:54:55 2009

Tools Copyright (c) 1996-2005 Texas Instruments Incorporated
C:\DOCUME~1\ADMINI~1\LOCALS~1\Temp\TI9922                            PAGE  127

    6501                      .dwattr DW$878, DW_AT_accessibility(DW_ACCESS_public)
    6502              DW$879  .dwtag  DW_TAG_member, DW_AT_type(*DW$T$19)
    6503                      .dwattr DW$879, DW_AT_name("WDINTE"), DW_AT_symbol_name("_WDINTE")
    6504                      .dwattr DW$879, DW_AT_bit_offset(0x00), DW_AT_bit_size(0x01)
    6505                      .dwattr DW$879, DW_AT_data_member_location[DW_OP_plus_uconst 0x0]
    6506                      .dwattr DW$879, DW_AT_accessibility(DW_ACCESS_public)
    6507                      .dwendtag DW$T$137
    6508              
    6509              
    6510              DW$T$139        .dwtag  DW_TAG_structure_type
    6511                      .dwattr DW$T$139, DW_AT_name("PLLCR_BITS")
    6512                      .dwattr DW$T$139, DW_AT_byte_size(0x01)
    6513              DW$880  .dwtag  DW_TAG_member, DW_AT_type(*DW$T$19)
    6514                      .dwattr DW$880, DW_AT_name("DIV"), DW_AT_symbol_name("_DIV")
    6515                      .dwattr DW$880, DW_AT_bit_offset(0x0c), DW_AT_bit_size(0x04)
    6516                      .dwattr DW$880, DW_AT_data_member_location[DW_OP_plus_uconst 0x0]
    6517                      .dwattr DW$880, DW_AT_accessibility(DW_ACCESS_public)
    6518              DW$881  .dwtag  DW_TAG_member, DW_AT_type(*DW$T$19)
    6519                      .dwattr DW$881, DW_AT_name("rsvd1"), DW_AT_symbol_name("_rsvd1")
    6520                      .dwattr DW$881, DW_AT_bit_offset(0x00), DW_AT_bit_size(0x0c)
    6521                      .dwattr DW$881, DW_AT_data_member_location[DW_OP_plus_uconst 0x0]
    6522                      .dwattr DW$881, DW_AT_accessibility(DW_ACCESS_public)
    6523                      .dwendtag DW$T$139
    6524              
    6525              DW$T$42 .dwtag  DW_TAG_typedef, DW_AT_name("int16"), DW_AT_type(*DW$T$10)
    6526                      .dwattr DW$T$42, DW_AT_language(DW_LANG_C)
    6527              
    6528                      .dwattr DW$115, DW_AT_external(0x01)
    6529                      .dwattr DW$133, DW_AT_external(0x01)
    6530                      .dwattr DW$135, DW_AT_external(0x01)
    6531                      .dwattr DW$124, DW_AT_external(0x01)
    6532                      .dwattr DW$114, DW_AT_external(0x01)
    6533                      .dwattr DW$88, DW_AT_external(0x01)
    6534                      .dwattr DW$100, DW_AT_external(0x01)
    6535                      .dwattr DW$CU, DW_AT_language(DW_LANG_C)
    6536              
    6537              ;***************************************************************
    6538              ;* DWARF CIE ENTRIES                                           *
    6539              ;***************************************************************
    6540              
    6541              DW$CIE  .dwcie 1, 40
    6542                      .dwcfa  0x0c, 20, 0
    6543                      .dwcfa  0x07, 0
    6544                      .dwcfa  0x07, 1
    6545                      .dwcfa  0x07, 2
    6546                      .dwcfa  0x07, 3
    6547                      .dwcfa  0x07, 4
    6548                      .dwcfa  0x07, 5
    6549                      .dwcfa  0x08, 6
    6550                      .dwcfa  0x08, 7
    6551                      .dwcfa  0x08, 8
    6552                      .dwcfa  0x08, 9
    6553                      .dwcfa  0x08, 10
    6554                      .dwcfa  0x08, 11
    6555                      .dwcfa  0x07, 12
TMS320C2000 COFF Assembler PC v4.1.0 Mon Dec 21 14:54:55 2009

Tools Copyright (c) 1996-2005 Texas Instruments Incorporated
C:\DOCUME~1\ADMINI~1\LOCALS~1\Temp\TI9922                            PAGE  128

    6556                      .dwcfa  0x07, 13
    6557                      .dwcfa  0x07, 14
    6558                      .dwcfa  0x07, 15
    6559                      .dwcfa  0x07, 16
    6560                      .dwcfa  0x07, 17
    6561                      .dwcfa  0x07, 18
    6562                      .dwcfa  0x07, 19
    6563                      .dwcfa  0x07, 20
    6564                      .dwcfa  0x07, 21
    6565                      .dwcfa  0x07, 22
    6566                      .dwcfa  0x07, 23
    6567                      .dwcfa  0x07, 24
    6568                      .dwcfa  0x07, 25
    6569                      .dwcfa  0x07, 26
    6570                      .dwcfa  0x08, 27
    6571                      .dwcfa  0x07, 28
    6572                      .dwcfa  0x07, 29
    6573                      .dwcfa  0x07, 30
    6574                      .dwcfa  0x07, 31
    6575                      .dwcfa  0x07, 32
    6576                      .dwcfa  0x07, 33
    6577                      .dwcfa  0x07, 34
    6578                      .dwcfa  0x07, 35
    6579                      .dwcfa  0x07, 36
    6580                      .dwcfa  0x07, 37
    6581                      .dwcfa  0x07, 38
    6582                      .dwcfa  0x07, 39
    6583                      .dwcfa  0x07, 40
    6584              
    6585              ;***************************************************************
    6586              ;* DWARF REGISTER MAP                                          *
    6587              ;***************************************************************
    6588              
    6589              DW$882  .dwtag  DW_TAG_assign_register, DW_AT_name("AL")
    6590                      .dwattr DW$882, DW_AT_location[DW_OP_reg0]
    6591              DW$883  .dwtag  DW_TAG_assign_register, DW_AT_name("AH")
    6592                      .dwattr DW$883, DW_AT_location[DW_OP_reg1]
    6593              DW$884  .dwtag  DW_TAG_assign_register, DW_AT_name("PL")
    6594                      .dwattr DW$884, DW_AT_location[DW_OP_reg2]
    6595              DW$885  .dwtag  DW_TAG_assign_register, DW_AT_name("PH")
    6596                      .dwattr DW$885, DW_AT_location[DW_OP_reg3]
    6597              DW$886  .dwtag  DW_TAG_assign_register, DW_AT_name("AR0")
    6598                      .dwattr DW$886, DW_AT_location[DW_OP_reg4]
    6599              DW$887  .dwtag  DW_TAG_assign_register, DW_AT_name("XAR0")
    6600                      .dwattr DW$887, DW_AT_location[DW_OP_reg5]
    6601              DW$888  .dwtag  DW_TAG_assign_register, DW_AT_name("AR1")
    6602                      .dwattr DW$888, DW_AT_location[DW_OP_reg6]
    6603              DW$889  .dwtag  DW_TAG_assign_register, DW_AT_name("XAR1")
    6604                      .dwattr DW$889, DW_AT_location[DW_OP_reg7]
    6605              DW$890  .dwtag  DW_TAG_assign_register, DW_AT_name("AR2")
    6606                      .dwattr DW$890, DW_AT_location[DW_OP_reg8]
    6607              DW$891  .dwtag  DW_TAG_assign_register, DW_AT_name("XAR2")
    6608                      .dwattr DW$891, DW_AT_location[DW_OP_reg9]
    6609              DW$892  .dwtag  DW_TAG_assign_register, DW_AT_name("AR3")
    6610                      .dwattr DW$892, DW_AT_location[DW_OP_reg10]
TMS320C2000 COFF Assembler PC v4.1.0 Mon Dec 21 14:54:55 2009

Tools Copyright (c) 1996-2005 Texas Instruments Incorporated
C:\DOCUME~1\ADMINI~1\LOCALS~1\Temp\TI9922                            PAGE  129

    6611              DW$893  .dwtag  DW_TAG_assign_register, DW_AT_name("XAR3")
    6612                      .dwattr DW$893, DW_AT_location[DW_OP_reg11]
    6613              DW$894  .dwtag  DW_TAG_assign_register, DW_AT_name("AR4")
    6614                      .dwattr DW$894, DW_AT_location[DW_OP_reg12]
    6615              DW$895  .dwtag  DW_TAG_assign_register, DW_AT_name("XAR4")
    6616                      .dwattr DW$895, DW_AT_location[DW_OP_reg13]
    6617              DW$896  .dwtag  DW_TAG_assign_register, DW_AT_name("AR5")
    6618                      .dwattr DW$896, DW_AT_location[DW_OP_reg14]
    6619              DW$897  .dwtag  DW_TAG_assign_register, DW_AT_name("XAR5")
    6620                      .dwattr DW$897, DW_AT_location[DW_OP_reg15]
    6621              DW$898  .dwtag  DW_TAG_assign_register, DW_AT_name("AR6")
    6622                      .dwattr DW$898, DW_AT_location[DW_OP_reg16]
    6623              DW$899  .dwtag  DW_TAG_assign_register, DW_AT_name("XAR6")
    6624                      .dwattr DW$899, DW_AT_location[DW_OP_reg17]
    6625              DW$900  .dwtag  DW_TAG_assign_register, DW_AT_name("AR7")
    6626                      .dwattr DW$900, DW_AT_location[DW_OP_reg18]
    6627              DW$901  .dwtag  DW_TAG_assign_register, DW_AT_name("XAR7")
    6628                      .dwattr DW$901, DW_AT_location[DW_OP_reg19]
    6629              DW$902  .dwtag  DW_TAG_assign_register, DW_AT_name("SP")
    6630                      .dwattr DW$902, DW_AT_location[DW_OP_reg20]
    6631              DW$903  .dwtag  DW_TAG_assign_register, DW_AT_name("XT")
    6632                      .dwattr DW$903, DW_AT_location[DW_OP_reg21]
    6633              DW$904  .dwtag  DW_TAG_assign_register, DW_AT_name("T")
    6634                      .dwattr DW$904, DW_AT_location[DW_OP_reg22]
    6635              DW$905  .dwtag  DW_TAG_assign_register, DW_AT_name("ST0")
    6636                      .dwattr DW$905, DW_AT_location[DW_OP_reg23]
    6637              DW$906  .dwtag  DW_TAG_assign_register, DW_AT_name("ST1")
    6638                      .dwattr DW$906, DW_AT_location[DW_OP_reg24]
    6639              DW$907  .dwtag  DW_TAG_assign_register, DW_AT_name("PC")
    6640                      .dwattr DW$907, DW_AT_location[DW_OP_reg25]
    6641              DW$908  .dwtag  DW_TAG_assign_register, DW_AT_name("RPC")
    6642                      .dwattr DW$908, DW_AT_location[DW_OP_reg26]
    6643              DW$909  .dwtag  DW_TAG_assign_register, DW_AT_name("FP")
    6644                      .dwattr DW$909, DW_AT_location[DW_OP_reg27]
    6645              DW$910  .dwtag  DW_TAG_assign_register, DW_AT_name("DP")
    6646                      .dwattr DW$910, DW_AT_location[DW_OP_reg28]
    6647              DW$911  .dwtag  DW_TAG_assign_register, DW_AT_name("SXM")
    6648                      .dwattr DW$911, DW_AT_location[DW_OP_reg29]
    6649              DW$912  .dwtag  DW_TAG_assign_register, DW_AT_name("PM")
    6650                      .dwattr DW$912, DW_AT_location[DW_OP_reg30]
    6651              DW$913  .dwtag  DW_TAG_assign_register, DW_AT_name("OVM")
    6652                      .dwattr DW$913, DW_AT_location[DW_OP_reg31]
    6653              DW$914  .dwtag  DW_TAG_assign_register, DW_AT_name("PAGE0")
    6654                      .dwattr DW$914, DW_AT_location[DW_OP_regx 0x20]
    6655              DW$915  .dwtag  DW_TAG_assign_register, DW_AT_name("AMODE")
    6656                      .dwattr DW$915, DW_AT_location[DW_OP_regx 0x21]
    6657              DW$916  .dwtag  DW_TAG_assign_register, DW_AT_name("IFR")
    6658                      .dwattr DW$916, DW_AT_location[DW_OP_regx 0x22]
    6659              DW$917  .dwtag  DW_TAG_assign_register, DW_AT_name("IER")
    6660                      .dwattr DW$917, DW_AT_location[DW_OP_regx 0x23]
    6661              DW$918  .dwtag  DW_TAG_assign_register, DW_AT_name("IER")
    6662                      .dwattr DW$918, DW_AT_location[DW_OP_regx 0x24]
    6663              DW$919  .dwtag  DW_TAG_assign_register, DW_AT_name("PSEUDO")
    6664                      .dwattr DW$919, DW_AT_location[DW_OP_regx 0x25]
    6665              DW$920  .dwtag  DW_TAG_assign_register, DW_AT_name("PSEUDOH")
TMS320C2000 COFF Assembler PC v4.1.0 Mon Dec 21 14:54:55 2009

Tools Copyright (c) 1996-2005 Texas Instruments Incorporated
C:\DOCUME~1\ADMINI~1\LOCALS~1\Temp\TI9922                            PAGE  130

    6666                      .dwattr DW$920, DW_AT_location[DW_OP_regx 0x26]
    6667              DW$921  .dwtag  DW_TAG_assign_register, DW_AT_name("VOL")
    6668                      .dwattr DW$921, DW_AT_location[DW_OP_regx 0x27]
    6669              DW$922  .dwtag  DW_TAG_assign_register, DW_AT_name("CIE_RETA")
    6670                      .dwattr DW$922, DW_AT_location[DW_OP_regx 0x28]
    6671                      .dwendtag DW$CU
    6672              

No Assembly Errors, No Assembly Warnings
